
RTOS_Part4_5.axf:     file format elf32-littlearm

Sections:
Idx Name          Size      VMA       LMA       File off  Algn
  0 .isr_vector   00000130  08000000  08000000  00010000  2**0
                  CONTENTS, ALLOC, LOAD, READONLY, DATA
  1 .text         000010d4  08000130  08000130  00010130  2**2
                  CONTENTS, ALLOC, LOAD, READONLY, CODE
  2 .rodata       0000002c  08001204  08001204  00011204  2**2
                  CONTENTS, ALLOC, LOAD, READONLY, DATA
  3 .ARM.extab    00000000  08001230  08001230  00011238  2**0
                  CONTENTS
  4 .ARM          00000000  08001230  08001230  00011238  2**0
                  CONTENTS
  5 .preinit_array 00000000  08001230  08001238  00011238  2**0
                  CONTENTS, ALLOC, LOAD, DATA
  6 .init_array   00000004  08001230  08001230  00011230  2**2
                  CONTENTS, ALLOC, LOAD, DATA
  7 .fini_array   00000004  08001234  08001234  00011234  2**2
                  CONTENTS, ALLOC, LOAD, DATA
  8 .data         00000000  20000000  20000000  00011238  2**0
                  CONTENTS, ALLOC, LOAD, DATA
  9 .bss          000003cc  20000000  08001238  00020000  2**2
                  ALLOC
 10 ._user_heap_stack 00000604  200003cc  08001238  000203cc  2**0
                  ALLOC
 11 .ARM.attributes 00000029  00000000  00000000  00011238  2**0
                  CONTENTS, READONLY
 12 .debug_info   00005b69  00000000  00000000  00011261  2**0
                  CONTENTS, READONLY, DEBUGGING
 13 .debug_abbrev 00000fed  00000000  00000000  00016dca  2**0
                  CONTENTS, READONLY, DEBUGGING
 14 .debug_loc    000011dc  00000000  00000000  00017db7  2**0
                  CONTENTS, READONLY, DEBUGGING
 15 .debug_aranges 000002f0  00000000  00000000  00018f98  2**3
                  CONTENTS, READONLY, DEBUGGING
 16 .debug_ranges 00000278  00000000  00000000  00019288  2**3
                  CONTENTS, READONLY, DEBUGGING
 17 .debug_macro  00002903  00000000  00000000  00019500  2**0
                  CONTENTS, READONLY, DEBUGGING
 18 .debug_line   000032a7  00000000  00000000  0001be03  2**0
                  CONTENTS, READONLY, DEBUGGING
 19 .debug_str    00013b70  00000000  00000000  0001f0aa  2**0
                  CONTENTS, READONLY, DEBUGGING
 20 .comment      0000007b  00000000  00000000  00032c1a  2**0
                  CONTENTS, READONLY
 21 .debug_frame  0000098c  00000000  00000000  00032c98  2**2
                  CONTENTS, READONLY, DEBUGGING

Disassembly of section .text:

08000130 <__do_global_dtors_aux>:
 8000130:	b510      	push	{r4, lr}
 8000132:	4c05      	ldr	r4, [pc, #20]	; (8000148 <__do_global_dtors_aux+0x18>)
 8000134:	7823      	ldrb	r3, [r4, #0]
 8000136:	b933      	cbnz	r3, 8000146 <__do_global_dtors_aux+0x16>
 8000138:	4b04      	ldr	r3, [pc, #16]	; (800014c <__do_global_dtors_aux+0x1c>)
 800013a:	b113      	cbz	r3, 8000142 <__do_global_dtors_aux+0x12>
 800013c:	4804      	ldr	r0, [pc, #16]	; (8000150 <__do_global_dtors_aux+0x20>)
 800013e:	f3af 8000 	nop.w
 8000142:	2301      	movs	r3, #1
 8000144:	7023      	strb	r3, [r4, #0]
 8000146:	bd10      	pop	{r4, pc}
 8000148:	20000000 	.word	0x20000000
 800014c:	00000000 	.word	0x00000000
 8000150:	080011ec 	.word	0x080011ec

08000154 <frame_dummy>:
 8000154:	b508      	push	{r3, lr}
 8000156:	4b03      	ldr	r3, [pc, #12]	; (8000164 <frame_dummy+0x10>)
 8000158:	b11b      	cbz	r3, 8000162 <frame_dummy+0xe>
 800015a:	4903      	ldr	r1, [pc, #12]	; (8000168 <frame_dummy+0x14>)
 800015c:	4803      	ldr	r0, [pc, #12]	; (800016c <frame_dummy+0x18>)
 800015e:	f3af 8000 	nop.w
 8000162:	bd08      	pop	{r3, pc}
 8000164:	00000000 	.word	0x00000000
 8000168:	20000004 	.word	0x20000004
 800016c:	080011ec 	.word	0x080011ec

08000170 <strcmp>:
 8000170:	f810 2b01 	ldrb.w	r2, [r0], #1
 8000174:	f811 3b01 	ldrb.w	r3, [r1], #1
 8000178:	2a01      	cmp	r2, #1
 800017a:	bf28      	it	cs
 800017c:	429a      	cmpcs	r2, r3
 800017e:	d0f7      	beq.n	8000170 <strcmp>
 8000180:	1ad0      	subs	r0, r2, r3
 8000182:	4770      	bx	lr

08000184 <__NVIC_SetPriority>:
  \param [in]      IRQn  Interrupt number.
  \param [in]  priority  Priority to set.
  \note    The priority cannot be set for every processor exception.
 */
__STATIC_INLINE void __NVIC_SetPriority(IRQn_Type IRQn, uint32_t priority)
{
 8000184:	b480      	push	{r7}
 8000186:	b083      	sub	sp, #12
 8000188:	af00      	add	r7, sp, #0
 800018a:	4603      	mov	r3, r0
 800018c:	6039      	str	r1, [r7, #0]
 800018e:	71fb      	strb	r3, [r7, #7]
  if ((int32_t)(IRQn) >= 0)
 8000190:	f997 3007 	ldrsb.w	r3, [r7, #7]
 8000194:	2b00      	cmp	r3, #0
 8000196:	db0a      	blt.n	80001ae <__NVIC_SetPriority+0x2a>
  {
    NVIC->IP[((uint32_t)IRQn)]               = (uint8_t)((priority << (8U - __NVIC_PRIO_BITS)) & (uint32_t)0xFFUL);
 8000198:	683b      	ldr	r3, [r7, #0]
 800019a:	b2da      	uxtb	r2, r3
 800019c:	490c      	ldr	r1, [pc, #48]	; (80001d0 <__NVIC_SetPriority+0x4c>)
 800019e:	f997 3007 	ldrsb.w	r3, [r7, #7]
 80001a2:	0152      	lsls	r2, r2, #5
 80001a4:	b2d2      	uxtb	r2, r2
 80001a6:	440b      	add	r3, r1
 80001a8:	f883 2300 	strb.w	r2, [r3, #768]	; 0x300
  }
  else
  {
    SCB->SHP[(((uint32_t)IRQn) & 0xFUL)-4UL] = (uint8_t)((priority << (8U - __NVIC_PRIO_BITS)) & (uint32_t)0xFFUL);
  }
}
 80001ac:	e00a      	b.n	80001c4 <__NVIC_SetPriority+0x40>
    SCB->SHP[(((uint32_t)IRQn) & 0xFUL)-4UL] = (uint8_t)((priority << (8U - __NVIC_PRIO_BITS)) & (uint32_t)0xFFUL);
 80001ae:	683b      	ldr	r3, [r7, #0]
 80001b0:	b2da      	uxtb	r2, r3
 80001b2:	4908      	ldr	r1, [pc, #32]	; (80001d4 <__NVIC_SetPriority+0x50>)
 80001b4:	79fb      	ldrb	r3, [r7, #7]
 80001b6:	f003 030f 	and.w	r3, r3, #15
 80001ba:	3b04      	subs	r3, #4
 80001bc:	0152      	lsls	r2, r2, #5
 80001be:	b2d2      	uxtb	r2, r2
 80001c0:	440b      	add	r3, r1
 80001c2:	761a      	strb	r2, [r3, #24]
}
 80001c4:	bf00      	nop
 80001c6:	370c      	adds	r7, #12
 80001c8:	46bd      	mov	sp, r7
 80001ca:	bc80      	pop	{r7}
 80001cc:	4770      	bx	lr
 80001ce:	bf00      	nop
 80001d0:	e000e100 	.word	0xe000e100
 80001d4:	e000ed00 	.word	0xe000ed00

080001d8 <SysTick_Config>:
  \note    When the variable <b>__Vendor_SysTickConfig</b> is set to 1, then the
           function <b>SysTick_Config</b> is not included. In this case, the file <b><i>device</i>.h</b>
           must contain a vendor-specific implementation of this function.
 */
__STATIC_INLINE uint32_t SysTick_Config(uint32_t ticks)
{
 80001d8:	b580      	push	{r7, lr}
 80001da:	b082      	sub	sp, #8
 80001dc:	af00      	add	r7, sp, #0
 80001de:	6078      	str	r0, [r7, #4]
  if ((ticks - 1UL) > SysTick_LOAD_RELOAD_Msk)
 80001e0:	687b      	ldr	r3, [r7, #4]
 80001e2:	3b01      	subs	r3, #1
 80001e4:	f1b3 7f80 	cmp.w	r3, #16777216	; 0x1000000
 80001e8:	d301      	bcc.n	80001ee <SysTick_Config+0x16>
  {
    return (1UL);                                                   /* Reload value impossible */
 80001ea:	2301      	movs	r3, #1
 80001ec:	e00f      	b.n	800020e <SysTick_Config+0x36>
  }

  SysTick->LOAD  = (uint32_t)(ticks - 1UL);                         /* set reload register */
 80001ee:	4a0a      	ldr	r2, [pc, #40]	; (8000218 <SysTick_Config+0x40>)
 80001f0:	687b      	ldr	r3, [r7, #4]
 80001f2:	3b01      	subs	r3, #1
 80001f4:	6053      	str	r3, [r2, #4]
  NVIC_SetPriority (SysTick_IRQn, (1UL << __NVIC_PRIO_BITS) - 1UL); /* set Priority for Systick Interrupt */
 80001f6:	2107      	movs	r1, #7
 80001f8:	f04f 30ff 	mov.w	r0, #4294967295
 80001fc:	f7ff ffc2 	bl	8000184 <__NVIC_SetPriority>
  SysTick->VAL   = 0UL;                                             /* Load the SysTick Counter Value */
 8000200:	4b05      	ldr	r3, [pc, #20]	; (8000218 <SysTick_Config+0x40>)
 8000202:	2200      	movs	r2, #0
 8000204:	609a      	str	r2, [r3, #8]
  SysTick->CTRL  = SysTick_CTRL_CLKSOURCE_Msk |
 8000206:	4b04      	ldr	r3, [pc, #16]	; (8000218 <SysTick_Config+0x40>)
 8000208:	2207      	movs	r2, #7
 800020a:	601a      	str	r2, [r3, #0]
                   SysTick_CTRL_TICKINT_Msk   |
                   SysTick_CTRL_ENABLE_Msk;                         /* Enable SysTick IRQ and SysTick Timer */
  return (0UL);                                                     /* Function successful */
 800020c:	2300      	movs	r3, #0
}
 800020e:	4618      	mov	r0, r3
 8000210:	3708      	adds	r7, #8
 8000212:	46bd      	mov	sp, r7
 8000214:	bd80      	pop	{r7, pc}
 8000216:	bf00      	nop
 8000218:	e000e010 	.word	0xe000e010

0800021c <HardFault_Handler>:

unsigned char  SysTickLED;


 void HardFault_Handler (void)
 {
 800021c:	b480      	push	{r7}
 800021e:	af00      	add	r7, sp, #0
	 while(1);
 8000220:	e7fe      	b.n	8000220 <HardFault_Handler+0x4>

08000222 <MemManage_Handler>:
 }
 void MemManage_Handler (void)
 {
 8000222:	b480      	push	{r7}
 8000224:	af00      	add	r7, sp, #0
	 while(1);
 8000226:	e7fe      	b.n	8000226 <MemManage_Handler+0x4>

08000228 <BusFault_Handler>:
 }
 void BusFault_Handler (void)
 {
 8000228:	b480      	push	{r7}
 800022a:	af00      	add	r7, sp, #0
	 while(1);
 800022c:	e7fe      	b.n	800022c <BusFault_Handler+0x4>

0800022e <UsageFault_Handler>:
 }
 void UsageFault_Handler (void)
 {
 800022e:	b480      	push	{r7}
 8000230:	af00      	add	r7, sp, #0
	 while(1);
 8000232:	e7fe      	b.n	8000232 <UsageFault_Handler+0x4>

08000234 <SVC_Handler>:
 }

 __attribute ((naked)) void SVC_Handler(void)
 {
 	__asm("tst lr, #0x04 	\n\t"
 8000234:	f01e 0f04 	tst.w	lr, #4
 8000238:	bf0c      	ite	eq
 800023a:	f3ef 8008 	mrseq	r0, MSP
 800023e:	f3ef 8009 	mrsne	r0, PSP
 8000242:	f000 bbd5 	b.w	80009f0 <OS_SVC>
 		  "ITE EQ			\n\t"
 		  "mrseq r0,MSP		\n\t"
 		  "mrsne r0,PSP		\n\t"
 		  "B OS_SVC ");
 }
 8000246:	bf00      	nop

08000248 <HW_init>:

void HW_init()
{
 8000248:	b580      	push	{r7, lr}
 800024a:	af00      	add	r7, sp, #0
	// X count -> 1 ms
	// X = 8000 Count

	//decrease PendSV interrupt priority to be smaller than or equal SYStick Timer
	//SYSTICK have a priority 14
	__NVIC_SetPriority(PendSV_IRQn, 15);
 800024c:	210f      	movs	r1, #15
 800024e:	f06f 0001 	mvn.w	r0, #1
 8000252:	f7ff ff97 	bl	8000184 <__NVIC_SetPriority>

}
 8000256:	bf00      	nop
 8000258:	bd80      	pop	{r7, pc}
	...

0800025c <trigger_OS_PendSV>:


void trigger_OS_PendSV()
{
 800025c:	b480      	push	{r7}
 800025e:	af00      	add	r7, sp, #0
	SCB->ICSR |=SCB_ICSR_PENDSVSET_Msk;
 8000260:	4b04      	ldr	r3, [pc, #16]	; (8000274 <trigger_OS_PendSV+0x18>)
 8000262:	685b      	ldr	r3, [r3, #4]
 8000264:	4a03      	ldr	r2, [pc, #12]	; (8000274 <trigger_OS_PendSV+0x18>)
 8000266:	f043 5380 	orr.w	r3, r3, #268435456	; 0x10000000
 800026a:	6053      	str	r3, [r2, #4]
}
 800026c:	bf00      	nop
 800026e:	46bd      	mov	sp, r7
 8000270:	bc80      	pop	{r7}
 8000272:	4770      	bx	lr
 8000274:	e000ed00 	.word	0xe000ed00

08000278 <Start_Tiker>:


void Start_Tiker()
{
 8000278:	b580      	push	{r7, lr}
 800027a:	af00      	add	r7, sp, #0
	SysTick_Config(8000);
 800027c:	f44f 50fa 	mov.w	r0, #8000	; 0x1f40
 8000280:	f7ff ffaa 	bl	80001d8 <SysTick_Config>
}
 8000284:	bf00      	nop
 8000286:	bd80      	pop	{r7, pc}

08000288 <SysTick_Handler>:


void SysTick_Handler(void)
{
 8000288:	b580      	push	{r7, lr}
 800028a:	af00      	add	r7, sp, #0
	SysTickLED ^=1;
 800028c:	4b07      	ldr	r3, [pc, #28]	; (80002ac <SysTick_Handler+0x24>)
 800028e:	781b      	ldrb	r3, [r3, #0]
 8000290:	f083 0301 	eor.w	r3, r3, #1
 8000294:	b2da      	uxtb	r2, r3
 8000296:	4b05      	ldr	r3, [pc, #20]	; (80002ac <SysTick_Handler+0x24>)
 8000298:	701a      	strb	r2, [r3, #0]
	MYRTOS_Update_TasksWaitingTime();
 800029a:	f000 fc53 	bl	8000b44 <MYRTOS_Update_TasksWaitingTime>
	//determine pCurrrent and pNext
	Decide_whatNext();
 800029e:	f000 fa73 	bl	8000788 <Decide_whatNext>
	//Switch Context
	trigger_OS_PendSV();
 80002a2:	f7ff ffdb 	bl	800025c <trigger_OS_PendSV>
}
 80002a6:	bf00      	nop
 80002a8:	bd80      	pop	{r7, pc}
 80002aa:	bf00      	nop
 80002ac:	20000034 	.word	0x20000034

080002b0 <FIFO_init>:

#include "MYRTOS_FIFO.h"


FIFO_Buf_Status FIFO_init(FIFO_Buf_t *fifo,element_type* buf ,unsigned int length)
{
 80002b0:	b480      	push	{r7}
 80002b2:	b085      	sub	sp, #20
 80002b4:	af00      	add	r7, sp, #0
 80002b6:	60f8      	str	r0, [r7, #12]
 80002b8:	60b9      	str	r1, [r7, #8]
 80002ba:	607a      	str	r2, [r7, #4]
	if(buf==NULL)
 80002bc:	68bb      	ldr	r3, [r7, #8]
 80002be:	2b00      	cmp	r3, #0
 80002c0:	d101      	bne.n	80002c6 <FIFO_init+0x16>
		return FIFO_null;
 80002c2:	2303      	movs	r3, #3
 80002c4:	e00f      	b.n	80002e6 <FIFO_init+0x36>

	fifo->base=buf;
 80002c6:	68fb      	ldr	r3, [r7, #12]
 80002c8:	68ba      	ldr	r2, [r7, #8]
 80002ca:	609a      	str	r2, [r3, #8]
	fifo->head=buf;
 80002cc:	68fb      	ldr	r3, [r7, #12]
 80002ce:	68ba      	ldr	r2, [r7, #8]
 80002d0:	60da      	str	r2, [r3, #12]
	fifo->tail=buf;
 80002d2:	68fb      	ldr	r3, [r7, #12]
 80002d4:	68ba      	ldr	r2, [r7, #8]
 80002d6:	611a      	str	r2, [r3, #16]
	fifo->length=length;
 80002d8:	68fb      	ldr	r3, [r7, #12]
 80002da:	687a      	ldr	r2, [r7, #4]
 80002dc:	601a      	str	r2, [r3, #0]
	fifo->count=0;
 80002de:	68fb      	ldr	r3, [r7, #12]
 80002e0:	2200      	movs	r2, #0
 80002e2:	605a      	str	r2, [r3, #4]

	return FIFO_no_error;
 80002e4:	2302      	movs	r3, #2


}
 80002e6:	4618      	mov	r0, r3
 80002e8:	3714      	adds	r7, #20
 80002ea:	46bd      	mov	sp, r7
 80002ec:	bc80      	pop	{r7}
 80002ee:	4770      	bx	lr

080002f0 <FIFO_enqueue>:
FIFO_Buf_Status FIFO_enqueue(FIFO_Buf_t *fifo,element_type item)
{
 80002f0:	b580      	push	{r7, lr}
 80002f2:	b084      	sub	sp, #16
 80002f4:	af00      	add	r7, sp, #0
 80002f6:	6078      	str	r0, [r7, #4]
 80002f8:	6039      	str	r1, [r7, #0]
	int end_fifo_buff=0;
 80002fa:	2300      	movs	r3, #0
 80002fc:	60fb      	str	r3, [r7, #12]
	if(!fifo->base || !fifo->head || !fifo->tail)
 80002fe:	687b      	ldr	r3, [r7, #4]
 8000300:	689b      	ldr	r3, [r3, #8]
 8000302:	2b00      	cmp	r3, #0
 8000304:	d007      	beq.n	8000316 <FIFO_enqueue+0x26>
 8000306:	687b      	ldr	r3, [r7, #4]
 8000308:	68db      	ldr	r3, [r3, #12]
 800030a:	2b00      	cmp	r3, #0
 800030c:	d003      	beq.n	8000316 <FIFO_enqueue+0x26>
 800030e:	687b      	ldr	r3, [r7, #4]
 8000310:	691b      	ldr	r3, [r3, #16]
 8000312:	2b00      	cmp	r3, #0
 8000314:	d101      	bne.n	800031a <FIFO_enqueue+0x2a>
		return FIFO_null;
 8000316:	2303      	movs	r3, #3
 8000318:	e02c      	b.n	8000374 <FIFO_enqueue+0x84>

	if(FIFO_IS_FULL(fifo)==FIFO_full)
 800031a:	6878      	ldr	r0, [r7, #4]
 800031c:	f000 f874 	bl	8000408 <FIFO_IS_FULL>
 8000320:	4603      	mov	r3, r0
 8000322:	2b01      	cmp	r3, #1
 8000324:	d101      	bne.n	800032a <FIFO_enqueue+0x3a>
		return FIFO_full;
 8000326:	2301      	movs	r3, #1
 8000328:	e024      	b.n	8000374 <FIFO_enqueue+0x84>

	*(fifo->head)=item;
 800032a:	687b      	ldr	r3, [r7, #4]
 800032c:	68db      	ldr	r3, [r3, #12]
 800032e:	683a      	ldr	r2, [r7, #0]
 8000330:	601a      	str	r2, [r3, #0]
	fifo->count++;
 8000332:	687b      	ldr	r3, [r7, #4]
 8000334:	685b      	ldr	r3, [r3, #4]
 8000336:	1c5a      	adds	r2, r3, #1
 8000338:	687b      	ldr	r3, [r7, #4]
 800033a:	605a      	str	r2, [r3, #4]

	//circular FIFO
	end_fifo_buff =(unsigned int)fifo->base+(unsigned int)(((fifo->length*4)-4));
 800033c:	687b      	ldr	r3, [r7, #4]
 800033e:	689b      	ldr	r3, [r3, #8]
 8000340:	461a      	mov	r2, r3
 8000342:	687b      	ldr	r3, [r7, #4]
 8000344:	681b      	ldr	r3, [r3, #0]
 8000346:	f103 4380 	add.w	r3, r3, #1073741824	; 0x40000000
 800034a:	3b01      	subs	r3, #1
 800034c:	009b      	lsls	r3, r3, #2
 800034e:	4413      	add	r3, r2
 8000350:	60fb      	str	r3, [r7, #12]
	if((unsigned int)fifo->head ==(end_fifo_buff))
 8000352:	687b      	ldr	r3, [r7, #4]
 8000354:	68db      	ldr	r3, [r3, #12]
 8000356:	461a      	mov	r2, r3
 8000358:	68fb      	ldr	r3, [r7, #12]
 800035a:	429a      	cmp	r2, r3
 800035c:	d104      	bne.n	8000368 <FIFO_enqueue+0x78>
		fifo->head=fifo->base;
 800035e:	687b      	ldr	r3, [r7, #4]
 8000360:	689a      	ldr	r2, [r3, #8]
 8000362:	687b      	ldr	r3, [r7, #4]
 8000364:	60da      	str	r2, [r3, #12]
 8000366:	e004      	b.n	8000372 <FIFO_enqueue+0x82>
	else
		fifo->head++;
 8000368:	687b      	ldr	r3, [r7, #4]
 800036a:	68db      	ldr	r3, [r3, #12]
 800036c:	1d1a      	adds	r2, r3, #4
 800036e:	687b      	ldr	r3, [r7, #4]
 8000370:	60da      	str	r2, [r3, #12]

	return FIFO_no_error;
 8000372:	2302      	movs	r3, #2

}
 8000374:	4618      	mov	r0, r3
 8000376:	3710      	adds	r7, #16
 8000378:	46bd      	mov	sp, r7
 800037a:	bd80      	pop	{r7, pc}

0800037c <FIFO_dequeue>:
FIFO_Buf_Status FIFO_dequeue(FIFO_Buf_t *fifo,element_type *item)
{
 800037c:	b480      	push	{r7}
 800037e:	b085      	sub	sp, #20
 8000380:	af00      	add	r7, sp, #0
 8000382:	6078      	str	r0, [r7, #4]
 8000384:	6039      	str	r1, [r7, #0]
	int end_fifo_buff=0;
 8000386:	2300      	movs	r3, #0
 8000388:	60fb      	str	r3, [r7, #12]
	if(!fifo->base || !fifo->head || !fifo->tail)
 800038a:	687b      	ldr	r3, [r7, #4]
 800038c:	689b      	ldr	r3, [r3, #8]
 800038e:	2b00      	cmp	r3, #0
 8000390:	d007      	beq.n	80003a2 <FIFO_dequeue+0x26>
 8000392:	687b      	ldr	r3, [r7, #4]
 8000394:	68db      	ldr	r3, [r3, #12]
 8000396:	2b00      	cmp	r3, #0
 8000398:	d003      	beq.n	80003a2 <FIFO_dequeue+0x26>
 800039a:	687b      	ldr	r3, [r7, #4]
 800039c:	691b      	ldr	r3, [r3, #16]
 800039e:	2b00      	cmp	r3, #0
 80003a0:	d101      	bne.n	80003a6 <FIFO_dequeue+0x2a>
		return FIFO_null;
 80003a2:	2303      	movs	r3, #3
 80003a4:	e02b      	b.n	80003fe <FIFO_dequeue+0x82>

	if(fifo->count ==0)
 80003a6:	687b      	ldr	r3, [r7, #4]
 80003a8:	685b      	ldr	r3, [r3, #4]
 80003aa:	2b00      	cmp	r3, #0
 80003ac:	d101      	bne.n	80003b2 <FIFO_dequeue+0x36>
		return FIFO_empty;
 80003ae:	2300      	movs	r3, #0
 80003b0:	e025      	b.n	80003fe <FIFO_dequeue+0x82>

	*item =*(fifo->tail);
 80003b2:	687b      	ldr	r3, [r7, #4]
 80003b4:	691b      	ldr	r3, [r3, #16]
 80003b6:	681a      	ldr	r2, [r3, #0]
 80003b8:	683b      	ldr	r3, [r7, #0]
 80003ba:	601a      	str	r2, [r3, #0]

	fifo->count--;
 80003bc:	687b      	ldr	r3, [r7, #4]
 80003be:	685b      	ldr	r3, [r3, #4]
 80003c0:	1e5a      	subs	r2, r3, #1
 80003c2:	687b      	ldr	r3, [r7, #4]
 80003c4:	605a      	str	r2, [r3, #4]

	//circular FIFO
	end_fifo_buff =(unsigned int)fifo->base+(unsigned int)(((fifo->length*4)-4));
 80003c6:	687b      	ldr	r3, [r7, #4]
 80003c8:	689b      	ldr	r3, [r3, #8]
 80003ca:	461a      	mov	r2, r3
 80003cc:	687b      	ldr	r3, [r7, #4]
 80003ce:	681b      	ldr	r3, [r3, #0]
 80003d0:	f103 4380 	add.w	r3, r3, #1073741824	; 0x40000000
 80003d4:	3b01      	subs	r3, #1
 80003d6:	009b      	lsls	r3, r3, #2
 80003d8:	4413      	add	r3, r2
 80003da:	60fb      	str	r3, [r7, #12]
	if((unsigned int)fifo->tail ==(end_fifo_buff))
 80003dc:	687b      	ldr	r3, [r7, #4]
 80003de:	691b      	ldr	r3, [r3, #16]
 80003e0:	461a      	mov	r2, r3
 80003e2:	68fb      	ldr	r3, [r7, #12]
 80003e4:	429a      	cmp	r2, r3
 80003e6:	d104      	bne.n	80003f2 <FIFO_dequeue+0x76>
		fifo->tail=fifo->base;
 80003e8:	687b      	ldr	r3, [r7, #4]
 80003ea:	689a      	ldr	r2, [r3, #8]
 80003ec:	687b      	ldr	r3, [r7, #4]
 80003ee:	611a      	str	r2, [r3, #16]
 80003f0:	e004      	b.n	80003fc <FIFO_dequeue+0x80>
	else
		fifo->tail++;
 80003f2:	687b      	ldr	r3, [r7, #4]
 80003f4:	691b      	ldr	r3, [r3, #16]
 80003f6:	1d1a      	adds	r2, r3, #4
 80003f8:	687b      	ldr	r3, [r7, #4]
 80003fa:	611a      	str	r2, [r3, #16]


	return FIFO_no_error;
 80003fc:	2302      	movs	r3, #2

}
 80003fe:	4618      	mov	r0, r3
 8000400:	3714      	adds	r7, #20
 8000402:	46bd      	mov	sp, r7
 8000404:	bc80      	pop	{r7}
 8000406:	4770      	bx	lr

08000408 <FIFO_IS_FULL>:
FIFO_Buf_Status FIFO_IS_FULL(FIFO_Buf_t *fifo)
{
 8000408:	b480      	push	{r7}
 800040a:	b083      	sub	sp, #12
 800040c:	af00      	add	r7, sp, #0
 800040e:	6078      	str	r0, [r7, #4]
	if(!fifo->base || !fifo->head || !fifo->tail)
 8000410:	687b      	ldr	r3, [r7, #4]
 8000412:	689b      	ldr	r3, [r3, #8]
 8000414:	2b00      	cmp	r3, #0
 8000416:	d007      	beq.n	8000428 <FIFO_IS_FULL+0x20>
 8000418:	687b      	ldr	r3, [r7, #4]
 800041a:	68db      	ldr	r3, [r3, #12]
 800041c:	2b00      	cmp	r3, #0
 800041e:	d003      	beq.n	8000428 <FIFO_IS_FULL+0x20>
 8000420:	687b      	ldr	r3, [r7, #4]
 8000422:	691b      	ldr	r3, [r3, #16]
 8000424:	2b00      	cmp	r3, #0
 8000426:	d101      	bne.n	800042c <FIFO_IS_FULL+0x24>
	return FIFO_null;
 8000428:	2303      	movs	r3, #3
 800042a:	e008      	b.n	800043e <FIFO_IS_FULL+0x36>

	if(fifo->count ==fifo->length)
 800042c:	687b      	ldr	r3, [r7, #4]
 800042e:	685a      	ldr	r2, [r3, #4]
 8000430:	687b      	ldr	r3, [r7, #4]
 8000432:	681b      	ldr	r3, [r3, #0]
 8000434:	429a      	cmp	r2, r3
 8000436:	d101      	bne.n	800043c <FIFO_IS_FULL+0x34>
		return FIFO_full;
 8000438:	2301      	movs	r3, #1
 800043a:	e000      	b.n	800043e <FIFO_IS_FULL+0x36>

	return FIFO_no_error;
 800043c:	2302      	movs	r3, #2

}
 800043e:	4618      	mov	r0, r3
 8000440:	370c      	adds	r7, #12
 8000442:	46bd      	mov	sp, r7
 8000444:	bc80      	pop	{r7}
 8000446:	4770      	bx	lr

08000448 <MYRTOS_Create_MainStack>:




MYRTOS_errorID MYRTOS_Create_MainStack()
{
 8000448:	b480      	push	{r7}
 800044a:	af00      	add	r7, sp, #0
	OS_Control._S_MSP_Task=(unsigned int)&_estack;
 800044c:	4a0f      	ldr	r2, [pc, #60]	; (800048c <MYRTOS_Create_MainStack+0x44>)
 800044e:	4b10      	ldr	r3, [pc, #64]	; (8000490 <MYRTOS_Create_MainStack+0x48>)
 8000450:	f8c3 2190 	str.w	r2, [r3, #400]	; 0x190
	OS_Control._E_MSP_Task=OS_Control._S_MSP_Task - MainStackSize ;
 8000454:	4b0e      	ldr	r3, [pc, #56]	; (8000490 <MYRTOS_Create_MainStack+0x48>)
 8000456:	f8d3 3190 	ldr.w	r3, [r3, #400]	; 0x190
 800045a:	f5a3 6300 	sub.w	r3, r3, #2048	; 0x800
 800045e:	4a0c      	ldr	r2, [pc, #48]	; (8000490 <MYRTOS_Create_MainStack+0x48>)
 8000460:	f8c2 3194 	str.w	r3, [r2, #404]	; 0x194

	//if (_E_MSP_Task < &_eheap) Error : exceeded the available stack size
	if(OS_Control._E_MSP_Task < (unsigned int )(&_eheap))
 8000464:	4b0a      	ldr	r3, [pc, #40]	; (8000490 <MYRTOS_Create_MainStack+0x48>)
 8000466:	f8d3 3194 	ldr.w	r3, [r3, #404]	; 0x194
 800046a:	4a0a      	ldr	r2, [pc, #40]	; (8000494 <MYRTOS_Create_MainStack+0x4c>)
 800046c:	4293      	cmp	r3, r2
 800046e:	d201      	bcs.n	8000474 <MYRTOS_Create_MainStack+0x2c>
	{
		return Task_exceeded_StackSize;
 8000470:	2302      	movs	r3, #2
 8000472:	e007      	b.n	8000484 <MYRTOS_Create_MainStack+0x3c>
	}


	//Aligned 8 Byte spaces between Main Task and PSP Tasks
	OS_Control.PSP_Task_Locator=(OS_Control._E_MSP_Task - 8);
 8000474:	4b06      	ldr	r3, [pc, #24]	; (8000490 <MYRTOS_Create_MainStack+0x48>)
 8000476:	f8d3 3194 	ldr.w	r3, [r3, #404]	; 0x194
 800047a:	3b08      	subs	r3, #8
 800047c:	4a04      	ldr	r2, [pc, #16]	; (8000490 <MYRTOS_Create_MainStack+0x48>)
 800047e:	f8c2 3198 	str.w	r3, [r2, #408]	; 0x198

	return NoError;
 8000482:	2300      	movs	r3, #0


}
 8000484:	4618      	mov	r0, r3
 8000486:	46bd      	mov	sp, r7
 8000488:	bc80      	pop	{r7}
 800048a:	4770      	bx	lr
 800048c:	20002800 	.word	0x20002800
 8000490:	20000038 	.word	0x20000038
 8000494:	200009d0 	.word	0x200009d0

08000498 <MYRTOS_IdleTask>:

unsigned char IdleTaskLed ;
void MYRTOS_IdleTask ()
{
 8000498:	b480      	push	{r7}
 800049a:	af00      	add	r7, sp, #0
	while(1)
	{
		IdleTaskLed ^=1;
 800049c:	4b04      	ldr	r3, [pc, #16]	; (80004b0 <MYRTOS_IdleTask+0x18>)
 800049e:	781b      	ldrb	r3, [r3, #0]
 80004a0:	f083 0301 	eor.w	r3, r3, #1
 80004a4:	b2da      	uxtb	r2, r3
 80004a6:	4b02      	ldr	r3, [pc, #8]	; (80004b0 <MYRTOS_IdleTask+0x18>)
 80004a8:	701a      	strb	r2, [r3, #0]
		__asm("wfe");//Wait for Event
 80004aa:	bf20      	wfe
		IdleTaskLed ^=1;
 80004ac:	e7f6      	b.n	800049c <MYRTOS_IdleTask+0x4>
 80004ae:	bf00      	nop
 80004b0:	2000023c 	.word	0x2000023c

080004b4 <MYRTOS_init>:
	}
}

MYRTOS_errorID MYRTOS_init()
{
 80004b4:	b580      	push	{r7, lr}
 80004b6:	b082      	sub	sp, #8
 80004b8:	af00      	add	r7, sp, #0
	MYRTOS_errorID error =NoError;
 80004ba:	2300      	movs	r3, #0
 80004bc:	71fb      	strb	r3, [r7, #7]

	//Update OS Mode (OSsuspend)
	OS_Control.OSmodeID = OSsuspend;
 80004be:	4b19      	ldr	r3, [pc, #100]	; (8000524 <MYRTOS_init+0x70>)
 80004c0:	2200      	movs	r2, #0
 80004c2:	f883 21a8 	strb.w	r2, [r3, #424]	; 0x1a8

	//Specify the main Stack for OS
	error +=MYRTOS_Create_MainStack();
 80004c6:	f7ff ffbf 	bl	8000448 <MYRTOS_Create_MainStack>
 80004ca:	4603      	mov	r3, r0
 80004cc:	461a      	mov	r2, r3
 80004ce:	79fb      	ldrb	r3, [r7, #7]
 80004d0:	4413      	add	r3, r2
 80004d2:	71fb      	strb	r3, [r7, #7]
	//Create OS Ready Queue
	if(FIFO_init(&Ready_QUEUE, Ready_QUEUE_FIFO, 10)!=FIFO_no_error)
 80004d4:	220a      	movs	r2, #10
 80004d6:	4914      	ldr	r1, [pc, #80]	; (8000528 <MYRTOS_init+0x74>)
 80004d8:	4814      	ldr	r0, [pc, #80]	; (800052c <MYRTOS_init+0x78>)
 80004da:	f7ff fee9 	bl	80002b0 <FIFO_init>
 80004de:	4603      	mov	r3, r0
 80004e0:	2b02      	cmp	r3, #2
 80004e2:	d002      	beq.n	80004ea <MYRTOS_init+0x36>
	{
		error +=Ready_Queue_init_error;
 80004e4:	79fb      	ldrb	r3, [r7, #7]
 80004e6:	3301      	adds	r3, #1
 80004e8:	71fb      	strb	r3, [r7, #7]
	}

	//Configure IDLE TASK
	strcpy(MYRTOS_idleTask.TaskName,"idleTask");
 80004ea:	4b11      	ldr	r3, [pc, #68]	; (8000530 <MYRTOS_init+0x7c>)
 80004ec:	4a11      	ldr	r2, [pc, #68]	; (8000534 <MYRTOS_init+0x80>)
 80004ee:	ca07      	ldmia	r2, {r0, r1, r2}
 80004f0:	c303      	stmia	r3!, {r0, r1}
 80004f2:	701a      	strb	r2, [r3, #0]
	MYRTOS_idleTask.priority =255;
 80004f4:	4b10      	ldr	r3, [pc, #64]	; (8000538 <MYRTOS_init+0x84>)
 80004f6:	22ff      	movs	r2, #255	; 0xff
 80004f8:	711a      	strb	r2, [r3, #4]
	MYRTOS_idleTask.p_TaskEntry=MYRTOS_IdleTask;
 80004fa:	4b0f      	ldr	r3, [pc, #60]	; (8000538 <MYRTOS_init+0x84>)
 80004fc:	4a0f      	ldr	r2, [pc, #60]	; (800053c <MYRTOS_init+0x88>)
 80004fe:	609a      	str	r2, [r3, #8]
	MYRTOS_idleTask.Stack_Size=300;
 8000500:	4b0d      	ldr	r3, [pc, #52]	; (8000538 <MYRTOS_init+0x84>)
 8000502:	f44f 7296 	mov.w	r2, #300	; 0x12c
 8000506:	601a      	str	r2, [r3, #0]

	error += MYRTOS_CreateTask(&MYRTOS_idleTask);
 8000508:	480b      	ldr	r0, [pc, #44]	; (8000538 <MYRTOS_init+0x84>)
 800050a:	f000 f857 	bl	80005bc <MYRTOS_CreateTask>
 800050e:	4603      	mov	r3, r0
 8000510:	461a      	mov	r2, r3
 8000512:	79fb      	ldrb	r3, [r7, #7]
 8000514:	4413      	add	r3, r2
 8000516:	71fb      	strb	r3, [r7, #7]


	return error ;
 8000518:	79fb      	ldrb	r3, [r7, #7]
}
 800051a:	4618      	mov	r0, r3
 800051c:	3708      	adds	r7, #8
 800051e:	46bd      	mov	sp, r7
 8000520:	bd80      	pop	{r7, pc}
 8000522:	bf00      	nop
 8000524:	20000038 	.word	0x20000038
 8000528:	20000240 	.word	0x20000240
 800052c:	200001e4 	.word	0x200001e4
 8000530:	20000214 	.word	0x20000214
 8000534:	08001204 	.word	0x08001204
 8000538:	200001f8 	.word	0x200001f8
 800053c:	08000499 	.word	0x08000499

08000540 <MyRTOS_Create_TaskStack>:




void MyRTOS_Create_TaskStack(Task_ref *Tref)
{
 8000540:	b480      	push	{r7}
 8000542:	b085      	sub	sp, #20
 8000544:	af00      	add	r7, sp, #0
 8000546:	6078      	str	r0, [r7, #4]
	 * r0

	 * ========
	 * r4 ,r5 ,r6 ,r7 ,r8 ,r9,r10,r11 (Saved /Restore) Manual
	 */
	Tref->Current_PSP =Tref->_S_PSP_TASK;
 8000548:	687b      	ldr	r3, [r7, #4]
 800054a:	691b      	ldr	r3, [r3, #16]
 800054c:	461a      	mov	r2, r3
 800054e:	687b      	ldr	r3, [r7, #4]
 8000550:	619a      	str	r2, [r3, #24]

	Tref->Current_PSP--;
 8000552:	687b      	ldr	r3, [r7, #4]
 8000554:	699b      	ldr	r3, [r3, #24]
 8000556:	1f1a      	subs	r2, r3, #4
 8000558:	687b      	ldr	r3, [r7, #4]
 800055a:	619a      	str	r2, [r3, #24]
	*(Tref->Current_PSP)=0x01000000; 	//Dummy xPSR should T=1 in bit 24 to avoid BusFault ;
 800055c:	687b      	ldr	r3, [r7, #4]
 800055e:	699b      	ldr	r3, [r3, #24]
 8000560:	f04f 7280 	mov.w	r2, #16777216	; 0x1000000
 8000564:	601a      	str	r2, [r3, #0]

	Tref->Current_PSP--;
 8000566:	687b      	ldr	r3, [r7, #4]
 8000568:	699b      	ldr	r3, [r3, #24]
 800056a:	1f1a      	subs	r2, r3, #4
 800056c:	687b      	ldr	r3, [r7, #4]
 800056e:	619a      	str	r2, [r3, #24]
	*(Tref->Current_PSP) = (unsigned int)Tref->p_TaskEntry; //PC
 8000570:	687b      	ldr	r3, [r7, #4]
 8000572:	689a      	ldr	r2, [r3, #8]
 8000574:	687b      	ldr	r3, [r7, #4]
 8000576:	699b      	ldr	r3, [r3, #24]
 8000578:	601a      	str	r2, [r3, #0]

	Tref->Current_PSP--;	//LR =0xFFFFFFFD (EXC_RETURN) return to thread with PSP
 800057a:	687b      	ldr	r3, [r7, #4]
 800057c:	699b      	ldr	r3, [r3, #24]
 800057e:	1f1a      	subs	r2, r3, #4
 8000580:	687b      	ldr	r3, [r7, #4]
 8000582:	619a      	str	r2, [r3, #24]
	*(Tref->Current_PSP) = 0xFFFFFFFD;
 8000584:	687b      	ldr	r3, [r7, #4]
 8000586:	699b      	ldr	r3, [r3, #24]
 8000588:	f06f 0202 	mvn.w	r2, #2
 800058c:	601a      	str	r2, [r3, #0]

	for (int j=0 ; j<13 ; j++)
 800058e:	2300      	movs	r3, #0
 8000590:	60fb      	str	r3, [r7, #12]
 8000592:	e00b      	b.n	80005ac <MyRTOS_Create_TaskStack+0x6c>
	{
		Tref->Current_PSP--;
 8000594:	687b      	ldr	r3, [r7, #4]
 8000596:	699b      	ldr	r3, [r3, #24]
 8000598:	1f1a      	subs	r2, r3, #4
 800059a:	687b      	ldr	r3, [r7, #4]
 800059c:	619a      	str	r2, [r3, #24]
		*(Tref->Current_PSP) =0;
 800059e:	687b      	ldr	r3, [r7, #4]
 80005a0:	699b      	ldr	r3, [r3, #24]
 80005a2:	2200      	movs	r2, #0
 80005a4:	601a      	str	r2, [r3, #0]
	for (int j=0 ; j<13 ; j++)
 80005a6:	68fb      	ldr	r3, [r7, #12]
 80005a8:	3301      	adds	r3, #1
 80005aa:	60fb      	str	r3, [r7, #12]
 80005ac:	68fb      	ldr	r3, [r7, #12]
 80005ae:	2b0c      	cmp	r3, #12
 80005b0:	ddf0      	ble.n	8000594 <MyRTOS_Create_TaskStack+0x54>
	}




}
 80005b2:	bf00      	nop
 80005b4:	3714      	adds	r7, #20
 80005b6:	46bd      	mov	sp, r7
 80005b8:	bc80      	pop	{r7}
 80005ba:	4770      	bx	lr

080005bc <MYRTOS_CreateTask>:

MYRTOS_errorID MYRTOS_CreateTask(Task_ref *Tref)
{
 80005bc:	b580      	push	{r7, lr}
 80005be:	b084      	sub	sp, #16
 80005c0:	af00      	add	r7, sp, #0
 80005c2:	6078      	str	r0, [r7, #4]
	MYRTOS_errorID error =NoError;
 80005c4:	2300      	movs	r3, #0
 80005c6:	73fb      	strb	r3, [r7, #15]

	//Create its Own PSP stack
	//Check Task Stack size exceeded the PSP stack
	Tref->_S_PSP_TASK = OS_Control.PSP_Task_Locator;
 80005c8:	4b19      	ldr	r3, [pc, #100]	; (8000630 <MYRTOS_CreateTask+0x74>)
 80005ca:	f8d3 2198 	ldr.w	r2, [r3, #408]	; 0x198
 80005ce:	687b      	ldr	r3, [r7, #4]
 80005d0:	611a      	str	r2, [r3, #16]
	Tref->_E_PSP_TASK = Tref->_S_PSP_TASK - Tref->Stack_Size;
 80005d2:	687b      	ldr	r3, [r7, #4]
 80005d4:	691a      	ldr	r2, [r3, #16]
 80005d6:	687b      	ldr	r3, [r7, #4]
 80005d8:	681b      	ldr	r3, [r3, #0]
 80005da:	1ad2      	subs	r2, r2, r3
 80005dc:	687b      	ldr	r3, [r7, #4]
 80005de:	615a      	str	r2, [r3, #20]
	//-						-
	//-						-
	//-	_eheap				-
	//-						-

	if(Tref->_E_PSP_TASK < (unsigned int )(&_eheap))
 80005e0:	687b      	ldr	r3, [r7, #4]
 80005e2:	695b      	ldr	r3, [r3, #20]
 80005e4:	4a13      	ldr	r2, [pc, #76]	; (8000634 <MYRTOS_CreateTask+0x78>)
 80005e6:	4293      	cmp	r3, r2
 80005e8:	d201      	bcs.n	80005ee <MYRTOS_CreateTask+0x32>
	{
		return Task_exceeded_StackSize;
 80005ea:	2302      	movs	r3, #2
 80005ec:	e01b      	b.n	8000626 <MYRTOS_CreateTask+0x6a>
	}

	//Aligned 8 Bytes spaces between Task PSP and other
	OS_Control.PSP_Task_Locator = (Tref->_E_PSP_TASK -8 );
 80005ee:	687b      	ldr	r3, [r7, #4]
 80005f0:	695b      	ldr	r3, [r3, #20]
 80005f2:	3b08      	subs	r3, #8
 80005f4:	4a0e      	ldr	r2, [pc, #56]	; (8000630 <MYRTOS_CreateTask+0x74>)
 80005f6:	f8c2 3198 	str.w	r3, [r2, #408]	; 0x198

	//Initialize PSP Task Stack
	MyRTOS_Create_TaskStack(Tref);
 80005fa:	6878      	ldr	r0, [r7, #4]
 80005fc:	f7ff ffa0 	bl	8000540 <MyRTOS_Create_TaskStack>

	//Update Scheduler Table
	OS_Control.OSTasks[OS_Control.NoOfActiveTasks]=Tref;
 8000600:	4b0b      	ldr	r3, [pc, #44]	; (8000630 <MYRTOS_CreateTask+0x74>)
 8000602:	f8d3 319c 	ldr.w	r3, [r3, #412]	; 0x19c
 8000606:	490a      	ldr	r1, [pc, #40]	; (8000630 <MYRTOS_CreateTask+0x74>)
 8000608:	687a      	ldr	r2, [r7, #4]
 800060a:	f841 2023 	str.w	r2, [r1, r3, lsl #2]
	OS_Control.NoOfActiveTasks++;
 800060e:	4b08      	ldr	r3, [pc, #32]	; (8000630 <MYRTOS_CreateTask+0x74>)
 8000610:	f8d3 319c 	ldr.w	r3, [r3, #412]	; 0x19c
 8000614:	3301      	adds	r3, #1
 8000616:	4a06      	ldr	r2, [pc, #24]	; (8000630 <MYRTOS_CreateTask+0x74>)
 8000618:	f8c2 319c 	str.w	r3, [r2, #412]	; 0x19c

	//Task State Update -> Suspend
	Tref->TaskState=Suspend;
 800061c:	687b      	ldr	r3, [r7, #4]
 800061e:	2200      	movs	r2, #0
 8000620:	f883 203a 	strb.w	r2, [r3, #58]	; 0x3a

	return error ;
 8000624:	7bfb      	ldrb	r3, [r7, #15]
}
 8000626:	4618      	mov	r0, r3
 8000628:	3710      	adds	r7, #16
 800062a:	46bd      	mov	sp, r7
 800062c:	bd80      	pop	{r7, pc}
 800062e:	bf00      	nop
 8000630:	20000038 	.word	0x20000038
 8000634:	200009d0 	.word	0x200009d0

08000638 <bubbleSort>:

//Handler
void bubbleSort()
{
 8000638:	b480      	push	{r7}
 800063a:	b085      	sub	sp, #20
 800063c:	af00      	add	r7, sp, #0
	unsigned int i , j , n;
	Task_ref* temp ;
	n = OS_Control.NoOfActiveTasks;
 800063e:	4b21      	ldr	r3, [pc, #132]	; (80006c4 <bubbleSort+0x8c>)
 8000640:	f8d3 319c 	ldr.w	r3, [r3, #412]	; 0x19c
 8000644:	607b      	str	r3, [r7, #4]

	for (i =0 ;i< (n-1); i++)
 8000646:	2300      	movs	r3, #0
 8000648:	60fb      	str	r3, [r7, #12]
 800064a:	e030      	b.n	80006ae <bubbleSort+0x76>
	{
		//Last i elements are already in place
		for (j =0 ; j< (n-i-1 ) ; j++)
 800064c:	2300      	movs	r3, #0
 800064e:	60bb      	str	r3, [r7, #8]
 8000650:	e023      	b.n	800069a <bubbleSort+0x62>
		{
			if (OS_Control.OSTasks[j]->priority > OS_Control.OSTasks[j+1]->priority)
 8000652:	4a1c      	ldr	r2, [pc, #112]	; (80006c4 <bubbleSort+0x8c>)
 8000654:	68bb      	ldr	r3, [r7, #8]
 8000656:	f852 3023 	ldr.w	r3, [r2, r3, lsl #2]
 800065a:	791a      	ldrb	r2, [r3, #4]
 800065c:	68bb      	ldr	r3, [r7, #8]
 800065e:	3301      	adds	r3, #1
 8000660:	4918      	ldr	r1, [pc, #96]	; (80006c4 <bubbleSort+0x8c>)
 8000662:	f851 3023 	ldr.w	r3, [r1, r3, lsl #2]
 8000666:	791b      	ldrb	r3, [r3, #4]
 8000668:	429a      	cmp	r2, r3
 800066a:	d913      	bls.n	8000694 <bubbleSort+0x5c>
			{
				temp =OS_Control.OSTasks[j];
 800066c:	4a15      	ldr	r2, [pc, #84]	; (80006c4 <bubbleSort+0x8c>)
 800066e:	68bb      	ldr	r3, [r7, #8]
 8000670:	f852 3023 	ldr.w	r3, [r2, r3, lsl #2]
 8000674:	603b      	str	r3, [r7, #0]
				OS_Control.OSTasks[j]=OS_Control.OSTasks[j+1];
 8000676:	68bb      	ldr	r3, [r7, #8]
 8000678:	3301      	adds	r3, #1
 800067a:	4a12      	ldr	r2, [pc, #72]	; (80006c4 <bubbleSort+0x8c>)
 800067c:	f852 2023 	ldr.w	r2, [r2, r3, lsl #2]
 8000680:	4910      	ldr	r1, [pc, #64]	; (80006c4 <bubbleSort+0x8c>)
 8000682:	68bb      	ldr	r3, [r7, #8]
 8000684:	f841 2023 	str.w	r2, [r1, r3, lsl #2]
				OS_Control.OSTasks[j+1]=temp;
 8000688:	68bb      	ldr	r3, [r7, #8]
 800068a:	3301      	adds	r3, #1
 800068c:	490d      	ldr	r1, [pc, #52]	; (80006c4 <bubbleSort+0x8c>)
 800068e:	683a      	ldr	r2, [r7, #0]
 8000690:	f841 2023 	str.w	r2, [r1, r3, lsl #2]
		for (j =0 ; j< (n-i-1 ) ; j++)
 8000694:	68bb      	ldr	r3, [r7, #8]
 8000696:	3301      	adds	r3, #1
 8000698:	60bb      	str	r3, [r7, #8]
 800069a:	687a      	ldr	r2, [r7, #4]
 800069c:	68fb      	ldr	r3, [r7, #12]
 800069e:	1ad3      	subs	r3, r2, r3
 80006a0:	3b01      	subs	r3, #1
 80006a2:	68ba      	ldr	r2, [r7, #8]
 80006a4:	429a      	cmp	r2, r3
 80006a6:	d3d4      	bcc.n	8000652 <bubbleSort+0x1a>
	for (i =0 ;i< (n-1); i++)
 80006a8:	68fb      	ldr	r3, [r7, #12]
 80006aa:	3301      	adds	r3, #1
 80006ac:	60fb      	str	r3, [r7, #12]
 80006ae:	687b      	ldr	r3, [r7, #4]
 80006b0:	3b01      	subs	r3, #1
 80006b2:	68fa      	ldr	r2, [r7, #12]
 80006b4:	429a      	cmp	r2, r3
 80006b6:	d3c9      	bcc.n	800064c <bubbleSort+0x14>
			}
		}
	}

}
 80006b8:	bf00      	nop
 80006ba:	3714      	adds	r7, #20
 80006bc:	46bd      	mov	sp, r7
 80006be:	bc80      	pop	{r7}
 80006c0:	4770      	bx	lr
 80006c2:	bf00      	nop
 80006c4:	20000038 	.word	0x20000038

080006c8 <MYRTOS_Update_Schedule_tables>:


//Handler
void MYRTOS_Update_Schedule_tables()
{
 80006c8:	b580      	push	{r7, lr}
 80006ca:	b084      	sub	sp, #16
 80006cc:	af00      	add	r7, sp, #0
	Task_ref* temp =NULL ;
 80006ce:	2300      	movs	r3, #0
 80006d0:	603b      	str	r3, [r7, #0]
	Task_ref* Ptask;
	Task_ref* PnextTask;
	int i =0;
 80006d2:	2300      	movs	r3, #0
 80006d4:	60fb      	str	r3, [r7, #12]
	//1-Bubble Sort Scheduler Table OS_Control->OSTASKS[100] (priority high than low)
	bubbleSort();
 80006d6:	f7ff ffaf 	bl	8000638 <bubbleSort>
	//2-free Ready Queue
	while(FIFO_dequeue(&Ready_QUEUE, &temp)!= FIFO_empty);
 80006da:	bf00      	nop
 80006dc:	463b      	mov	r3, r7
 80006de:	4619      	mov	r1, r3
 80006e0:	4827      	ldr	r0, [pc, #156]	; (8000780 <MYRTOS_Update_Schedule_tables+0xb8>)
 80006e2:	f7ff fe4b 	bl	800037c <FIFO_dequeue>
 80006e6:	4603      	mov	r3, r0
 80006e8:	2b00      	cmp	r3, #0
 80006ea:	d1f7      	bne.n	80006dc <MYRTOS_Update_Schedule_tables+0x14>
	//3-update ready Queue
	while(i< OS_Control.NoOfActiveTasks)
 80006ec:	e03d      	b.n	800076a <MYRTOS_Update_Schedule_tables+0xa2>
	{
		Ptask = OS_Control.OSTasks[i];
 80006ee:	4a25      	ldr	r2, [pc, #148]	; (8000784 <MYRTOS_Update_Schedule_tables+0xbc>)
 80006f0:	68fb      	ldr	r3, [r7, #12]
 80006f2:	f852 3023 	ldr.w	r3, [r2, r3, lsl #2]
 80006f6:	60bb      	str	r3, [r7, #8]
		PnextTask = OS_Control.OSTasks[i+1];
 80006f8:	68fb      	ldr	r3, [r7, #12]
 80006fa:	3301      	adds	r3, #1
 80006fc:	4a21      	ldr	r2, [pc, #132]	; (8000784 <MYRTOS_Update_Schedule_tables+0xbc>)
 80006fe:	f852 3023 	ldr.w	r3, [r2, r3, lsl #2]
 8000702:	607b      	str	r3, [r7, #4]

		if(Ptask->TaskState != Suspend)
 8000704:	68bb      	ldr	r3, [r7, #8]
 8000706:	f893 303a 	ldrb.w	r3, [r3, #58]	; 0x3a
 800070a:	2b00      	cmp	r3, #0
 800070c:	d02a      	beq.n	8000764 <MYRTOS_Update_Schedule_tables+0x9c>
		{
			//in case we reached to the end of available OSTASKS
			//Here Bug "Logical Error"
			if(PnextTask->TaskState == Suspend )
 800070e:	687b      	ldr	r3, [r7, #4]
 8000710:	f893 303a 	ldrb.w	r3, [r3, #58]	; 0x3a
 8000714:	2b00      	cmp	r3, #0
 8000716:	d108      	bne.n	800072a <MYRTOS_Update_Schedule_tables+0x62>
			{
				FIFO_enqueue(&Ready_QUEUE, Ptask);
 8000718:	68b9      	ldr	r1, [r7, #8]
 800071a:	4819      	ldr	r0, [pc, #100]	; (8000780 <MYRTOS_Update_Schedule_tables+0xb8>)
 800071c:	f7ff fde8 	bl	80002f0 <FIFO_enqueue>
				Ptask->TaskState =ready;
 8000720:	68bb      	ldr	r3, [r7, #8]
 8000722:	2203      	movs	r2, #3
 8000724:	f883 203a 	strb.w	r2, [r3, #58]	; 0x3a
				break;
 8000728:	e025      	b.n	8000776 <MYRTOS_Update_Schedule_tables+0xae>
			}
			// if the Ptask priority > PnextTask priority then (lowest number is meaning higher priority)
			if(Ptask->priority < PnextTask->priority)
 800072a:	68bb      	ldr	r3, [r7, #8]
 800072c:	791a      	ldrb	r2, [r3, #4]
 800072e:	687b      	ldr	r3, [r7, #4]
 8000730:	791b      	ldrb	r3, [r3, #4]
 8000732:	429a      	cmp	r2, r3
 8000734:	d208      	bcs.n	8000748 <MYRTOS_Update_Schedule_tables+0x80>
			{
				FIFO_enqueue(&Ready_QUEUE, Ptask);
 8000736:	68b9      	ldr	r1, [r7, #8]
 8000738:	4811      	ldr	r0, [pc, #68]	; (8000780 <MYRTOS_Update_Schedule_tables+0xb8>)
 800073a:	f7ff fdd9 	bl	80002f0 <FIFO_enqueue>
				Ptask->TaskState =ready;
 800073e:	68bb      	ldr	r3, [r7, #8]
 8000740:	2203      	movs	r2, #3
 8000742:	f883 203a 	strb.w	r2, [r3, #58]	; 0x3a
				break;
 8000746:	e016      	b.n	8000776 <MYRTOS_Update_Schedule_tables+0xae>
			}
			else if (Ptask->priority == PnextTask->priority)
 8000748:	68bb      	ldr	r3, [r7, #8]
 800074a:	791a      	ldrb	r2, [r3, #4]
 800074c:	687b      	ldr	r3, [r7, #4]
 800074e:	791b      	ldrb	r3, [r3, #4]
 8000750:	429a      	cmp	r2, r3
 8000752:	d107      	bne.n	8000764 <MYRTOS_Update_Schedule_tables+0x9c>
			{
				//if the Ptask priority == PnextTask then
				//	push Ptask to ready state
				//and make the ptask = PnextTask and
				FIFO_enqueue(&Ready_QUEUE, Ptask);
 8000754:	68b9      	ldr	r1, [r7, #8]
 8000756:	480a      	ldr	r0, [pc, #40]	; (8000780 <MYRTOS_Update_Schedule_tables+0xb8>)
 8000758:	f7ff fdca 	bl	80002f0 <FIFO_enqueue>
				Ptask->TaskState =ready;
 800075c:	68bb      	ldr	r3, [r7, #8]
 800075e:	2203      	movs	r2, #3
 8000760:	f883 203a 	strb.w	r2, [r3, #58]	; 0x3a
				//not allowed to happen as we already reordered it bu bubble sort
			}

		}

		i++;
 8000764:	68fb      	ldr	r3, [r7, #12]
 8000766:	3301      	adds	r3, #1
 8000768:	60fb      	str	r3, [r7, #12]
	while(i< OS_Control.NoOfActiveTasks)
 800076a:	4b06      	ldr	r3, [pc, #24]	; (8000784 <MYRTOS_Update_Schedule_tables+0xbc>)
 800076c:	f8d3 219c 	ldr.w	r2, [r3, #412]	; 0x19c
 8000770:	68fb      	ldr	r3, [r7, #12]
 8000772:	429a      	cmp	r2, r3
 8000774:	d8bb      	bhi.n	80006ee <MYRTOS_Update_Schedule_tables+0x26>
	}
}
 8000776:	bf00      	nop
 8000778:	3710      	adds	r7, #16
 800077a:	46bd      	mov	sp, r7
 800077c:	bd80      	pop	{r7, pc}
 800077e:	bf00      	nop
 8000780:	200001e4 	.word	0x200001e4
 8000784:	20000038 	.word	0x20000038

08000788 <Decide_whatNext>:
//Handler Mode
void Decide_whatNext()
{
 8000788:	b580      	push	{r7, lr}
 800078a:	af00      	add	r7, sp, #0
	// if Ready Queue is empty && OS_Control.currentTask->TaskState !=suspend
	// The Condition Here Logical Bug
	if(Ready_QUEUE.count == 0 && OS_Control.CurrentTask->TaskState != Suspend)
 800078c:	4b24      	ldr	r3, [pc, #144]	; (8000820 <Decide_whatNext+0x98>)
 800078e:	685b      	ldr	r3, [r3, #4]
 8000790:	2b00      	cmp	r3, #0
 8000792:	d11a      	bne.n	80007ca <Decide_whatNext+0x42>
 8000794:	4b23      	ldr	r3, [pc, #140]	; (8000824 <Decide_whatNext+0x9c>)
 8000796:	f8d3 31a0 	ldr.w	r3, [r3, #416]	; 0x1a0
 800079a:	f893 303a 	ldrb.w	r3, [r3, #58]	; 0x3a
 800079e:	2b00      	cmp	r3, #0
 80007a0:	d013      	beq.n	80007ca <Decide_whatNext+0x42>
	{
		OS_Control.CurrentTask->TaskState=Running;
 80007a2:	4b20      	ldr	r3, [pc, #128]	; (8000824 <Decide_whatNext+0x9c>)
 80007a4:	f8d3 31a0 	ldr.w	r3, [r3, #416]	; 0x1a0
 80007a8:	2201      	movs	r2, #1
 80007aa:	f883 203a 	strb.w	r2, [r3, #58]	; 0x3a
		//add the current task again (round robin)
		FIFO_enqueue(&Ready_QUEUE, OS_Control.CurrentTask);
 80007ae:	4b1d      	ldr	r3, [pc, #116]	; (8000824 <Decide_whatNext+0x9c>)
 80007b0:	f8d3 31a0 	ldr.w	r3, [r3, #416]	; 0x1a0
 80007b4:	4619      	mov	r1, r3
 80007b6:	481a      	ldr	r0, [pc, #104]	; (8000820 <Decide_whatNext+0x98>)
 80007b8:	f7ff fd9a 	bl	80002f0 <FIFO_enqueue>
		//To Switch Context
		OS_Control.NextTask=OS_Control.CurrentTask;
 80007bc:	4b19      	ldr	r3, [pc, #100]	; (8000824 <Decide_whatNext+0x9c>)
 80007be:	f8d3 31a0 	ldr.w	r3, [r3, #416]	; 0x1a0
 80007c2:	4a18      	ldr	r2, [pc, #96]	; (8000824 <Decide_whatNext+0x9c>)
 80007c4:	f8c2 31a4 	str.w	r3, [r2, #420]	; 0x1a4
			FIFO_enqueue(&Ready_QUEUE, OS_Control.CurrentTask);
			OS_Control.CurrentTask->TaskState=ready;
		}
	}

}
 80007c8:	e027      	b.n	800081a <Decide_whatNext+0x92>
		FIFO_dequeue(&Ready_QUEUE, &OS_Control.NextTask);//Put the first element in the fifo into NextTask to switch to it in PendSv Handler
 80007ca:	4917      	ldr	r1, [pc, #92]	; (8000828 <Decide_whatNext+0xa0>)
 80007cc:	4814      	ldr	r0, [pc, #80]	; (8000820 <Decide_whatNext+0x98>)
 80007ce:	f7ff fdd5 	bl	800037c <FIFO_dequeue>
		OS_Control.NextTask->TaskState=Running;
 80007d2:	4b14      	ldr	r3, [pc, #80]	; (8000824 <Decide_whatNext+0x9c>)
 80007d4:	f8d3 31a4 	ldr.w	r3, [r3, #420]	; 0x1a4
 80007d8:	2201      	movs	r2, #1
 80007da:	f883 203a 	strb.w	r2, [r3, #58]	; 0x3a
		if((OS_Control.CurrentTask->priority == OS_Control.NextTask->priority)&&(OS_Control.CurrentTask->TaskState!= Suspend) )
 80007de:	4b11      	ldr	r3, [pc, #68]	; (8000824 <Decide_whatNext+0x9c>)
 80007e0:	f8d3 31a0 	ldr.w	r3, [r3, #416]	; 0x1a0
 80007e4:	791a      	ldrb	r2, [r3, #4]
 80007e6:	4b0f      	ldr	r3, [pc, #60]	; (8000824 <Decide_whatNext+0x9c>)
 80007e8:	f8d3 31a4 	ldr.w	r3, [r3, #420]	; 0x1a4
 80007ec:	791b      	ldrb	r3, [r3, #4]
 80007ee:	429a      	cmp	r2, r3
 80007f0:	d113      	bne.n	800081a <Decide_whatNext+0x92>
 80007f2:	4b0c      	ldr	r3, [pc, #48]	; (8000824 <Decide_whatNext+0x9c>)
 80007f4:	f8d3 31a0 	ldr.w	r3, [r3, #416]	; 0x1a0
 80007f8:	f893 303a 	ldrb.w	r3, [r3, #58]	; 0x3a
 80007fc:	2b00      	cmp	r3, #0
 80007fe:	d00c      	beq.n	800081a <Decide_whatNext+0x92>
			FIFO_enqueue(&Ready_QUEUE, OS_Control.CurrentTask);
 8000800:	4b08      	ldr	r3, [pc, #32]	; (8000824 <Decide_whatNext+0x9c>)
 8000802:	f8d3 31a0 	ldr.w	r3, [r3, #416]	; 0x1a0
 8000806:	4619      	mov	r1, r3
 8000808:	4805      	ldr	r0, [pc, #20]	; (8000820 <Decide_whatNext+0x98>)
 800080a:	f7ff fd71 	bl	80002f0 <FIFO_enqueue>
			OS_Control.CurrentTask->TaskState=ready;
 800080e:	4b05      	ldr	r3, [pc, #20]	; (8000824 <Decide_whatNext+0x9c>)
 8000810:	f8d3 31a0 	ldr.w	r3, [r3, #416]	; 0x1a0
 8000814:	2203      	movs	r2, #3
 8000816:	f883 203a 	strb.w	r2, [r3, #58]	; 0x3a
}
 800081a:	bf00      	nop
 800081c:	bd80      	pop	{r7, pc}
 800081e:	bf00      	nop
 8000820:	200001e4 	.word	0x200001e4
 8000824:	20000038 	.word	0x20000038
 8000828:	200001dc 	.word	0x200001dc

0800082c <PendSV_Handler>:
	//====================================
	//Save the Context of the Current Task
	//====================================
	//Get the Current Task "Current PSP from CPU register as CPU push xpsr to r0"
	//I Think this line haven't affect
	OS_GET_PSP(OS_Control.CurrentTask->Current_PSP);
 800082c:	4b6f      	ldr	r3, [pc, #444]	; (80009ec <PendSV_Handler+0x1c0>)
 800082e:	f8d3 31a0 	ldr.w	r3, [r3, #416]	; 0x1a0
 8000832:	f3ef 8009 	mrs	r0, PSP
 8000836:	4602      	mov	r2, r0
 8000838:	619a      	str	r2, [r3, #24]

	//using this Current_PSP(Pointer) to store (R4 to R11)
	OS_Control.CurrentTask->Current_PSP--;
 800083a:	4b6c      	ldr	r3, [pc, #432]	; (80009ec <PendSV_Handler+0x1c0>)
 800083c:	f8d3 31a0 	ldr.w	r3, [r3, #416]	; 0x1a0
 8000840:	699a      	ldr	r2, [r3, #24]
 8000842:	3a04      	subs	r2, #4
 8000844:	619a      	str	r2, [r3, #24]
	__asm volatile("mov %0 ,r4":"=r"(*(OS_Control.CurrentTask->Current_PSP)) );
 8000846:	4b69      	ldr	r3, [pc, #420]	; (80009ec <PendSV_Handler+0x1c0>)
 8000848:	f8d3 31a0 	ldr.w	r3, [r3, #416]	; 0x1a0
 800084c:	699b      	ldr	r3, [r3, #24]
 800084e:	4622      	mov	r2, r4
 8000850:	601a      	str	r2, [r3, #0]
	OS_Control.CurrentTask->Current_PSP--;
 8000852:	4b66      	ldr	r3, [pc, #408]	; (80009ec <PendSV_Handler+0x1c0>)
 8000854:	f8d3 31a0 	ldr.w	r3, [r3, #416]	; 0x1a0
 8000858:	699a      	ldr	r2, [r3, #24]
 800085a:	3a04      	subs	r2, #4
 800085c:	619a      	str	r2, [r3, #24]
	__asm volatile("mov %0 ,r5":"=r"(*(OS_Control.CurrentTask->Current_PSP)) );
 800085e:	4b63      	ldr	r3, [pc, #396]	; (80009ec <PendSV_Handler+0x1c0>)
 8000860:	f8d3 31a0 	ldr.w	r3, [r3, #416]	; 0x1a0
 8000864:	699b      	ldr	r3, [r3, #24]
 8000866:	462a      	mov	r2, r5
 8000868:	601a      	str	r2, [r3, #0]
	OS_Control.CurrentTask->Current_PSP--;
 800086a:	4b60      	ldr	r3, [pc, #384]	; (80009ec <PendSV_Handler+0x1c0>)
 800086c:	f8d3 31a0 	ldr.w	r3, [r3, #416]	; 0x1a0
 8000870:	699a      	ldr	r2, [r3, #24]
 8000872:	3a04      	subs	r2, #4
 8000874:	619a      	str	r2, [r3, #24]
	__asm volatile("mov %0 ,r6":"=r"(*(OS_Control.CurrentTask->Current_PSP)) );
 8000876:	4b5d      	ldr	r3, [pc, #372]	; (80009ec <PendSV_Handler+0x1c0>)
 8000878:	f8d3 31a0 	ldr.w	r3, [r3, #416]	; 0x1a0
 800087c:	699b      	ldr	r3, [r3, #24]
 800087e:	4632      	mov	r2, r6
 8000880:	601a      	str	r2, [r3, #0]
	OS_Control.CurrentTask->Current_PSP--;
 8000882:	4b5a      	ldr	r3, [pc, #360]	; (80009ec <PendSV_Handler+0x1c0>)
 8000884:	f8d3 31a0 	ldr.w	r3, [r3, #416]	; 0x1a0
 8000888:	699a      	ldr	r2, [r3, #24]
 800088a:	3a04      	subs	r2, #4
 800088c:	619a      	str	r2, [r3, #24]
	__asm volatile("mov %0 ,r7":"=r"(*(OS_Control.CurrentTask->Current_PSP)) );
 800088e:	4b57      	ldr	r3, [pc, #348]	; (80009ec <PendSV_Handler+0x1c0>)
 8000890:	f8d3 31a0 	ldr.w	r3, [r3, #416]	; 0x1a0
 8000894:	699b      	ldr	r3, [r3, #24]
 8000896:	463a      	mov	r2, r7
 8000898:	601a      	str	r2, [r3, #0]
	OS_Control.CurrentTask->Current_PSP--;
 800089a:	4b54      	ldr	r3, [pc, #336]	; (80009ec <PendSV_Handler+0x1c0>)
 800089c:	f8d3 31a0 	ldr.w	r3, [r3, #416]	; 0x1a0
 80008a0:	699a      	ldr	r2, [r3, #24]
 80008a2:	3a04      	subs	r2, #4
 80008a4:	619a      	str	r2, [r3, #24]
	__asm volatile("mov %0 ,r8":"=r"(*(OS_Control.CurrentTask->Current_PSP)) );
 80008a6:	4b51      	ldr	r3, [pc, #324]	; (80009ec <PendSV_Handler+0x1c0>)
 80008a8:	f8d3 31a0 	ldr.w	r3, [r3, #416]	; 0x1a0
 80008ac:	699b      	ldr	r3, [r3, #24]
 80008ae:	4642      	mov	r2, r8
 80008b0:	601a      	str	r2, [r3, #0]
	OS_Control.CurrentTask->Current_PSP--;
 80008b2:	4b4e      	ldr	r3, [pc, #312]	; (80009ec <PendSV_Handler+0x1c0>)
 80008b4:	f8d3 31a0 	ldr.w	r3, [r3, #416]	; 0x1a0
 80008b8:	699a      	ldr	r2, [r3, #24]
 80008ba:	3a04      	subs	r2, #4
 80008bc:	619a      	str	r2, [r3, #24]
	__asm volatile("mov %0 ,r9":"=r"(*(OS_Control.CurrentTask->Current_PSP)) );
 80008be:	4b4b      	ldr	r3, [pc, #300]	; (80009ec <PendSV_Handler+0x1c0>)
 80008c0:	f8d3 31a0 	ldr.w	r3, [r3, #416]	; 0x1a0
 80008c4:	699b      	ldr	r3, [r3, #24]
 80008c6:	464a      	mov	r2, r9
 80008c8:	601a      	str	r2, [r3, #0]
	OS_Control.CurrentTask->Current_PSP--;
 80008ca:	4b48      	ldr	r3, [pc, #288]	; (80009ec <PendSV_Handler+0x1c0>)
 80008cc:	f8d3 31a0 	ldr.w	r3, [r3, #416]	; 0x1a0
 80008d0:	699a      	ldr	r2, [r3, #24]
 80008d2:	3a04      	subs	r2, #4
 80008d4:	619a      	str	r2, [r3, #24]
	__asm volatile("mov %0 ,r10":"=r"(*(OS_Control.CurrentTask->Current_PSP)) );
 80008d6:	4b45      	ldr	r3, [pc, #276]	; (80009ec <PendSV_Handler+0x1c0>)
 80008d8:	f8d3 31a0 	ldr.w	r3, [r3, #416]	; 0x1a0
 80008dc:	699b      	ldr	r3, [r3, #24]
 80008de:	4652      	mov	r2, sl
 80008e0:	601a      	str	r2, [r3, #0]
	OS_Control.CurrentTask->Current_PSP--;
 80008e2:	4b42      	ldr	r3, [pc, #264]	; (80009ec <PendSV_Handler+0x1c0>)
 80008e4:	f8d3 31a0 	ldr.w	r3, [r3, #416]	; 0x1a0
 80008e8:	699a      	ldr	r2, [r3, #24]
 80008ea:	3a04      	subs	r2, #4
 80008ec:	619a      	str	r2, [r3, #24]
	__asm volatile("mov %0 ,r11":"=r"(*(OS_Control.CurrentTask->Current_PSP)) );
 80008ee:	4b3f      	ldr	r3, [pc, #252]	; (80009ec <PendSV_Handler+0x1c0>)
 80008f0:	f8d3 31a0 	ldr.w	r3, [r3, #416]	; 0x1a0
 80008f4:	699b      	ldr	r3, [r3, #24]
 80008f6:	465a      	mov	r2, fp
 80008f8:	601a      	str	r2, [r3, #0]
	//Already saved in Current_PSP

	//====================================
	//Restore the Context of the Next Task
	//====================================
	if(OS_Control.NextTask != NULL)
 80008fa:	4b3c      	ldr	r3, [pc, #240]	; (80009ec <PendSV_Handler+0x1c0>)
 80008fc:	f8d3 31a4 	ldr.w	r3, [r3, #420]	; 0x1a4
 8000900:	2b00      	cmp	r3, #0
 8000902:	d009      	beq.n	8000918 <PendSV_Handler+0xec>
	{
		OS_Control.CurrentTask=OS_Control.NextTask;
 8000904:	4b39      	ldr	r3, [pc, #228]	; (80009ec <PendSV_Handler+0x1c0>)
 8000906:	f8d3 31a4 	ldr.w	r3, [r3, #420]	; 0x1a4
 800090a:	4a38      	ldr	r2, [pc, #224]	; (80009ec <PendSV_Handler+0x1c0>)
 800090c:	f8c2 31a0 	str.w	r3, [r2, #416]	; 0x1a0
		OS_Control.NextTask=NULL;
 8000910:	4b36      	ldr	r3, [pc, #216]	; (80009ec <PendSV_Handler+0x1c0>)
 8000912:	2200      	movs	r2, #0
 8000914:	f8c3 21a4 	str.w	r2, [r3, #420]	; 0x1a4
	}
	__asm volatile("mov r11 ,%0" : :"r"(*(OS_Control.CurrentTask->Current_PSP)) );
 8000918:	4b34      	ldr	r3, [pc, #208]	; (80009ec <PendSV_Handler+0x1c0>)
 800091a:	f8d3 31a0 	ldr.w	r3, [r3, #416]	; 0x1a0
 800091e:	699b      	ldr	r3, [r3, #24]
 8000920:	681b      	ldr	r3, [r3, #0]
 8000922:	469b      	mov	fp, r3
	OS_Control.CurrentTask->Current_PSP++;
 8000924:	4b31      	ldr	r3, [pc, #196]	; (80009ec <PendSV_Handler+0x1c0>)
 8000926:	f8d3 31a0 	ldr.w	r3, [r3, #416]	; 0x1a0
 800092a:	699a      	ldr	r2, [r3, #24]
 800092c:	3204      	adds	r2, #4
 800092e:	619a      	str	r2, [r3, #24]
	__asm volatile("mov r10 ,%0" : :"r"(*(OS_Control.CurrentTask->Current_PSP)) );
 8000930:	4b2e      	ldr	r3, [pc, #184]	; (80009ec <PendSV_Handler+0x1c0>)
 8000932:	f8d3 31a0 	ldr.w	r3, [r3, #416]	; 0x1a0
 8000936:	699b      	ldr	r3, [r3, #24]
 8000938:	681b      	ldr	r3, [r3, #0]
 800093a:	469a      	mov	sl, r3
	OS_Control.CurrentTask->Current_PSP++;
 800093c:	4b2b      	ldr	r3, [pc, #172]	; (80009ec <PendSV_Handler+0x1c0>)
 800093e:	f8d3 31a0 	ldr.w	r3, [r3, #416]	; 0x1a0
 8000942:	699a      	ldr	r2, [r3, #24]
 8000944:	3204      	adds	r2, #4
 8000946:	619a      	str	r2, [r3, #24]
	__asm volatile("mov r9  ,%0" : :"r"(*(OS_Control.CurrentTask->Current_PSP)) );
 8000948:	4b28      	ldr	r3, [pc, #160]	; (80009ec <PendSV_Handler+0x1c0>)
 800094a:	f8d3 31a0 	ldr.w	r3, [r3, #416]	; 0x1a0
 800094e:	699b      	ldr	r3, [r3, #24]
 8000950:	681b      	ldr	r3, [r3, #0]
 8000952:	4699      	mov	r9, r3
	OS_Control.CurrentTask->Current_PSP++;
 8000954:	4b25      	ldr	r3, [pc, #148]	; (80009ec <PendSV_Handler+0x1c0>)
 8000956:	f8d3 31a0 	ldr.w	r3, [r3, #416]	; 0x1a0
 800095a:	699a      	ldr	r2, [r3, #24]
 800095c:	3204      	adds	r2, #4
 800095e:	619a      	str	r2, [r3, #24]
	__asm volatile("mov r8  ,%0" : :"r"(*(OS_Control.CurrentTask->Current_PSP)) );
 8000960:	4b22      	ldr	r3, [pc, #136]	; (80009ec <PendSV_Handler+0x1c0>)
 8000962:	f8d3 31a0 	ldr.w	r3, [r3, #416]	; 0x1a0
 8000966:	699b      	ldr	r3, [r3, #24]
 8000968:	681b      	ldr	r3, [r3, #0]
 800096a:	4698      	mov	r8, r3
	OS_Control.CurrentTask->Current_PSP++;
 800096c:	4b1f      	ldr	r3, [pc, #124]	; (80009ec <PendSV_Handler+0x1c0>)
 800096e:	f8d3 31a0 	ldr.w	r3, [r3, #416]	; 0x1a0
 8000972:	699a      	ldr	r2, [r3, #24]
 8000974:	3204      	adds	r2, #4
 8000976:	619a      	str	r2, [r3, #24]
	__asm volatile("mov r7  ,%0" : :"r"(*(OS_Control.CurrentTask->Current_PSP)) );
 8000978:	4b1c      	ldr	r3, [pc, #112]	; (80009ec <PendSV_Handler+0x1c0>)
 800097a:	f8d3 31a0 	ldr.w	r3, [r3, #416]	; 0x1a0
 800097e:	699b      	ldr	r3, [r3, #24]
 8000980:	681b      	ldr	r3, [r3, #0]
 8000982:	461f      	mov	r7, r3
	OS_Control.CurrentTask->Current_PSP++;
 8000984:	4b19      	ldr	r3, [pc, #100]	; (80009ec <PendSV_Handler+0x1c0>)
 8000986:	f8d3 31a0 	ldr.w	r3, [r3, #416]	; 0x1a0
 800098a:	699a      	ldr	r2, [r3, #24]
 800098c:	3204      	adds	r2, #4
 800098e:	619a      	str	r2, [r3, #24]
	__asm volatile("mov r6  ,%0" : :"r"(*(OS_Control.CurrentTask->Current_PSP)) );
 8000990:	4b16      	ldr	r3, [pc, #88]	; (80009ec <PendSV_Handler+0x1c0>)
 8000992:	f8d3 31a0 	ldr.w	r3, [r3, #416]	; 0x1a0
 8000996:	699b      	ldr	r3, [r3, #24]
 8000998:	681b      	ldr	r3, [r3, #0]
 800099a:	461e      	mov	r6, r3
	OS_Control.CurrentTask->Current_PSP++;
 800099c:	4b13      	ldr	r3, [pc, #76]	; (80009ec <PendSV_Handler+0x1c0>)
 800099e:	f8d3 31a0 	ldr.w	r3, [r3, #416]	; 0x1a0
 80009a2:	699a      	ldr	r2, [r3, #24]
 80009a4:	3204      	adds	r2, #4
 80009a6:	619a      	str	r2, [r3, #24]
	__asm volatile("mov r5  ,%0" : :"r"(*(OS_Control.CurrentTask->Current_PSP)) );
 80009a8:	4b10      	ldr	r3, [pc, #64]	; (80009ec <PendSV_Handler+0x1c0>)
 80009aa:	f8d3 31a0 	ldr.w	r3, [r3, #416]	; 0x1a0
 80009ae:	699b      	ldr	r3, [r3, #24]
 80009b0:	681b      	ldr	r3, [r3, #0]
 80009b2:	461d      	mov	r5, r3
	OS_Control.CurrentTask->Current_PSP++;
 80009b4:	4b0d      	ldr	r3, [pc, #52]	; (80009ec <PendSV_Handler+0x1c0>)
 80009b6:	f8d3 31a0 	ldr.w	r3, [r3, #416]	; 0x1a0
 80009ba:	699a      	ldr	r2, [r3, #24]
 80009bc:	3204      	adds	r2, #4
 80009be:	619a      	str	r2, [r3, #24]
	__asm volatile("mov r4  ,%0" : :"r"(*(OS_Control.CurrentTask->Current_PSP)) );
 80009c0:	4b0a      	ldr	r3, [pc, #40]	; (80009ec <PendSV_Handler+0x1c0>)
 80009c2:	f8d3 31a0 	ldr.w	r3, [r3, #416]	; 0x1a0
 80009c6:	699b      	ldr	r3, [r3, #24]
 80009c8:	681b      	ldr	r3, [r3, #0]
 80009ca:	461c      	mov	r4, r3
	OS_Control.CurrentTask->Current_PSP++;
 80009cc:	4b07      	ldr	r3, [pc, #28]	; (80009ec <PendSV_Handler+0x1c0>)
 80009ce:	f8d3 31a0 	ldr.w	r3, [r3, #416]	; 0x1a0
 80009d2:	699a      	ldr	r2, [r3, #24]
 80009d4:	3204      	adds	r2, #4
 80009d6:	619a      	str	r2, [r3, #24]

	//update PSP and exit
	OS_SET_PSP(OS_Control.CurrentTask->Current_PSP);
 80009d8:	4b04      	ldr	r3, [pc, #16]	; (80009ec <PendSV_Handler+0x1c0>)
 80009da:	f8d3 31a0 	ldr.w	r3, [r3, #416]	; 0x1a0
 80009de:	699b      	ldr	r3, [r3, #24]
 80009e0:	4618      	mov	r0, r3
 80009e2:	f380 8809 	msr	PSP, r0

	__asm("BX LR");
 80009e6:	4770      	bx	lr
}
 80009e8:	bf00      	nop
 80009ea:	bf00      	nop
 80009ec:	20000038 	.word	0x20000038

080009f0 <OS_SVC>:

//Handler Mode
void OS_SVC (int* stackFrame)
{
 80009f0:	b580      	push	{r7, lr}
 80009f2:	b084      	sub	sp, #16
 80009f4:	af00      	add	r7, sp, #0
 80009f6:	6078      	str	r0, [r7, #4]
	//OS_SVC_Set Stack -> r0 -> argument0 = StackFramePointer
	//OS_SVC_Set Stack -> r0,r1,r2,r3,r12,LR,PC,xPSR
	unsigned char SVC_number ;
	SVC_number= *((unsigned char *)(((unsigned char *)stackFrame[6])-2));
 80009f8:	687b      	ldr	r3, [r7, #4]
 80009fa:	3318      	adds	r3, #24
 80009fc:	681b      	ldr	r3, [r3, #0]
 80009fe:	3b02      	subs	r3, #2
 8000a00:	781b      	ldrb	r3, [r3, #0]
 8000a02:	73fb      	strb	r3, [r7, #15]
	switch(SVC_number)
 8000a04:	7bfb      	ldrb	r3, [r7, #15]
 8000a06:	2b00      	cmp	r3, #0
 8000a08:	db1f      	blt.n	8000a4a <OS_SVC+0x5a>
 8000a0a:	2b01      	cmp	r3, #1
 8000a0c:	dd02      	ble.n	8000a14 <OS_SVC+0x24>
 8000a0e:	2b02      	cmp	r3, #2
 8000a10:	d017      	beq.n	8000a42 <OS_SVC+0x52>

		break;
	}


}
 8000a12:	e01a      	b.n	8000a4a <OS_SVC+0x5a>
		MYRTOS_Update_Schedule_tables();
 8000a14:	f7ff fe58 	bl	80006c8 <MYRTOS_Update_Schedule_tables>
		if(OS_Control.OSmodeID == OsRunning)
 8000a18:	4b0e      	ldr	r3, [pc, #56]	; (8000a54 <OS_SVC+0x64>)
 8000a1a:	f893 31a8 	ldrb.w	r3, [r3, #424]	; 0x1a8
 8000a1e:	2b01      	cmp	r3, #1
 8000a20:	d112      	bne.n	8000a48 <OS_SVC+0x58>
			if(strcmp(OS_Control.CurrentTask->TaskName,"idleTask") !=0)
 8000a22:	4b0c      	ldr	r3, [pc, #48]	; (8000a54 <OS_SVC+0x64>)
 8000a24:	f8d3 31a0 	ldr.w	r3, [r3, #416]	; 0x1a0
 8000a28:	331c      	adds	r3, #28
 8000a2a:	490b      	ldr	r1, [pc, #44]	; (8000a58 <OS_SVC+0x68>)
 8000a2c:	4618      	mov	r0, r3
 8000a2e:	f7ff fb9f 	bl	8000170 <strcmp>
 8000a32:	4603      	mov	r3, r0
 8000a34:	2b00      	cmp	r3, #0
 8000a36:	d007      	beq.n	8000a48 <OS_SVC+0x58>
				Decide_whatNext();
 8000a38:	f7ff fea6 	bl	8000788 <Decide_whatNext>
				trigger_OS_PendSV();
 8000a3c:	f7ff fc0e 	bl	800025c <trigger_OS_PendSV>
		break;
 8000a40:	e002      	b.n	8000a48 <OS_SVC+0x58>
		MYRTOS_Update_Schedule_tables();
 8000a42:	f7ff fe41 	bl	80006c8 <MYRTOS_Update_Schedule_tables>
		break;
 8000a46:	e000      	b.n	8000a4a <OS_SVC+0x5a>
		break;
 8000a48:	bf00      	nop
}
 8000a4a:	bf00      	nop
 8000a4c:	3710      	adds	r7, #16
 8000a4e:	46bd      	mov	sp, r7
 8000a50:	bd80      	pop	{r7, pc}
 8000a52:	bf00      	nop
 8000a54:	20000038 	.word	0x20000038
 8000a58:	08001204 	.word	0x08001204

08000a5c <MYRTOS_OS_SVC_SET>:

//Thread Mode
void MYRTOS_OS_SVC_SET(SVC_ID ID)
{
 8000a5c:	b480      	push	{r7}
 8000a5e:	b083      	sub	sp, #12
 8000a60:	af00      	add	r7, sp, #0
 8000a62:	4603      	mov	r3, r0
 8000a64:	71fb      	strb	r3, [r7, #7]
	switch(ID)
 8000a66:	79fb      	ldrb	r3, [r7, #7]
 8000a68:	2b04      	cmp	r3, #4
 8000a6a:	d817      	bhi.n	8000a9c <MYRTOS_OS_SVC_SET+0x40>
 8000a6c:	a201      	add	r2, pc, #4	; (adr r2, 8000a74 <MYRTOS_OS_SVC_SET+0x18>)
 8000a6e:	f852 f023 	ldr.w	pc, [r2, r3, lsl #2]
 8000a72:	bf00      	nop
 8000a74:	08000a89 	.word	0x08000a89
 8000a78:	08000a8d 	.word	0x08000a8d
 8000a7c:	08000a91 	.word	0x08000a91
 8000a80:	08000a95 	.word	0x08000a95
 8000a84:	08000a99 	.word	0x08000a99
	{
	case SVC_ActivateTask:
		__asm("svc #0x00");
 8000a88:	df00      	svc	0
		break;
 8000a8a:	e007      	b.n	8000a9c <MYRTOS_OS_SVC_SET+0x40>
	case SVC_TerminateTask:
		__asm("svc #0x01");
 8000a8c:	df01      	svc	1
		break;
 8000a8e:	e005      	b.n	8000a9c <MYRTOS_OS_SVC_SET+0x40>
	case SVC_TaskWaitingTime:
		__asm("svc #0x02");
 8000a90:	df02      	svc	2
		break;
 8000a92:	e003      	b.n	8000a9c <MYRTOS_OS_SVC_SET+0x40>
	case SVC_AquireMutex:		//Assignment Task
		__asm("svc #0x03");
 8000a94:	df03      	svc	3
		break;
 8000a96:	e001      	b.n	8000a9c <MYRTOS_OS_SVC_SET+0x40>
	case SVC_ReleaseMutex:		//Assignment Task
		__asm("svc #0x04");
 8000a98:	df04      	svc	4
		break;
 8000a9a:	bf00      	nop
	}
}
 8000a9c:	bf00      	nop
 8000a9e:	370c      	adds	r7, #12
 8000aa0:	46bd      	mov	sp, r7
 8000aa2:	bc80      	pop	{r7}
 8000aa4:	4770      	bx	lr
 8000aa6:	bf00      	nop

08000aa8 <MYRTOS_ActivateTask>:
MYRTOS_errorID MYRTOS_ActivateTask(Task_ref *Tref)
{
 8000aa8:	b580      	push	{r7, lr}
 8000aaa:	b082      	sub	sp, #8
 8000aac:	af00      	add	r7, sp, #0
 8000aae:	6078      	str	r0, [r7, #4]
	Tref->TaskState=Waiting;
 8000ab0:	687b      	ldr	r3, [r7, #4]
 8000ab2:	2202      	movs	r2, #2
 8000ab4:	f883 203a 	strb.w	r2, [r3, #58]	; 0x3a
	MYRTOS_OS_SVC_SET(SVC_ActivateTask);
 8000ab8:	2000      	movs	r0, #0
 8000aba:	f7ff ffcf 	bl	8000a5c <MYRTOS_OS_SVC_SET>

}
 8000abe:	bf00      	nop
 8000ac0:	4618      	mov	r0, r3
 8000ac2:	3708      	adds	r7, #8
 8000ac4:	46bd      	mov	sp, r7
 8000ac6:	bd80      	pop	{r7, pc}

08000ac8 <MYRTOS_TerminateTask>:
MYRTOS_errorID MYRTOS_TerminateTask(Task_ref *Tref)
{
 8000ac8:	b580      	push	{r7, lr}
 8000aca:	b082      	sub	sp, #8
 8000acc:	af00      	add	r7, sp, #0
 8000ace:	6078      	str	r0, [r7, #4]
	Tref->TaskState=Suspend;
 8000ad0:	687b      	ldr	r3, [r7, #4]
 8000ad2:	2200      	movs	r2, #0
 8000ad4:	f883 203a 	strb.w	r2, [r3, #58]	; 0x3a
	MYRTOS_OS_SVC_SET(SVC_TerminateTask);
 8000ad8:	2001      	movs	r0, #1
 8000ada:	f7ff ffbf 	bl	8000a5c <MYRTOS_OS_SVC_SET>
}
 8000ade:	bf00      	nop
 8000ae0:	4618      	mov	r0, r3
 8000ae2:	3708      	adds	r7, #8
 8000ae4:	46bd      	mov	sp, r7
 8000ae6:	bd80      	pop	{r7, pc}

08000ae8 <MYRTOS_STARTOS>:
	MYRTOS_OS_SVC_SET(SVC_TerminateTask);

}

void MYRTOS_STARTOS()
{
 8000ae8:	b580      	push	{r7, lr}
 8000aea:	af00      	add	r7, sp, #0
	OS_Control.OSmodeID=OsRunning;
 8000aec:	4b13      	ldr	r3, [pc, #76]	; (8000b3c <MYRTOS_STARTOS+0x54>)
 8000aee:	2201      	movs	r2, #1
 8000af0:	f883 21a8 	strb.w	r2, [r3, #424]	; 0x1a8
	//Set Default "Current Task idle Task"
	OS_Control.CurrentTask=&MYRTOS_idleTask;
 8000af4:	4b11      	ldr	r3, [pc, #68]	; (8000b3c <MYRTOS_STARTOS+0x54>)
 8000af6:	4a12      	ldr	r2, [pc, #72]	; (8000b40 <MYRTOS_STARTOS+0x58>)
 8000af8:	f8c3 21a0 	str.w	r2, [r3, #416]	; 0x1a0
	//Activate IDLE Task
	MYRTOS_ActivateTask(&MYRTOS_idleTask);
 8000afc:	4810      	ldr	r0, [pc, #64]	; (8000b40 <MYRTOS_STARTOS+0x58>)
 8000afe:	f7ff ffd3 	bl	8000aa8 <MYRTOS_ActivateTask>
	//Start Ticker
	Start_Tiker(); // 1ms
 8000b02:	f7ff fbb9 	bl	8000278 <Start_Tiker>

	OS_SET_PSP(OS_Control.CurrentTask->Current_PSP);
 8000b06:	4b0d      	ldr	r3, [pc, #52]	; (8000b3c <MYRTOS_STARTOS+0x54>)
 8000b08:	f8d3 31a0 	ldr.w	r3, [r3, #416]	; 0x1a0
 8000b0c:	699b      	ldr	r3, [r3, #24]
 8000b0e:	4618      	mov	r0, r3
 8000b10:	f380 8809 	msr	PSP, r0
	//Switch Thread Mode Sp from MSP to PSP
	OS_SWITCH_SP_to_PSP;
 8000b14:	f3ef 8014 	mrs	r0, CONTROL
 8000b18:	f04f 0102 	mov.w	r1, #2
 8000b1c:	ea41 0000 	orr.w	r0, r1, r0
 8000b20:	f380 8814 	msr	CONTROL, r0
	OS_SWITCH_to_unprivileged;
 8000b24:	f3ef 8314 	mrs	r3, CONTROL
 8000b28:	f043 0301 	orr.w	r3, r3, #1
 8000b2c:	f383 8814 	msr	CONTROL, r3

	MYRTOS_idleTask.p_TaskEntry();
 8000b30:	4b03      	ldr	r3, [pc, #12]	; (8000b40 <MYRTOS_STARTOS+0x58>)
 8000b32:	689b      	ldr	r3, [r3, #8]
 8000b34:	4798      	blx	r3

}
 8000b36:	bf00      	nop
 8000b38:	bd80      	pop	{r7, pc}
 8000b3a:	bf00      	nop
 8000b3c:	20000038 	.word	0x20000038
 8000b40:	200001f8 	.word	0x200001f8

08000b44 <MYRTOS_Update_TasksWaitingTime>:


void MYRTOS_Update_TasksWaitingTime()
{
 8000b44:	b580      	push	{r7, lr}
 8000b46:	b082      	sub	sp, #8
 8000b48:	af00      	add	r7, sp, #0
	for (int i =0 ; i <OS_Control.NoOfActiveTasks ;i++)
 8000b4a:	2300      	movs	r3, #0
 8000b4c:	607b      	str	r3, [r7, #4]
 8000b4e:	e031      	b.n	8000bb4 <MYRTOS_Update_TasksWaitingTime+0x70>
	{
		//it is blocked until meet the time line
		if(OS_Control.OSTasks[i]->TaskState == Suspend)
 8000b50:	4a1d      	ldr	r2, [pc, #116]	; (8000bc8 <MYRTOS_Update_TasksWaitingTime+0x84>)
 8000b52:	687b      	ldr	r3, [r7, #4]
 8000b54:	f852 3023 	ldr.w	r3, [r2, r3, lsl #2]
 8000b58:	f893 303a 	ldrb.w	r3, [r3, #58]	; 0x3a
 8000b5c:	2b00      	cmp	r3, #0
 8000b5e:	d126      	bne.n	8000bae <MYRTOS_Update_TasksWaitingTime+0x6a>
		{
			if(OS_Control.OSTasks[i]->TimingWaiting.Blocking ==Enable)
 8000b60:	4a19      	ldr	r2, [pc, #100]	; (8000bc8 <MYRTOS_Update_TasksWaitingTime+0x84>)
 8000b62:	687b      	ldr	r3, [r7, #4]
 8000b64:	f852 3023 	ldr.w	r3, [r2, r3, lsl #2]
 8000b68:	f893 303c 	ldrb.w	r3, [r3, #60]	; 0x3c
 8000b6c:	2b00      	cmp	r3, #0
 8000b6e:	d11e      	bne.n	8000bae <MYRTOS_Update_TasksWaitingTime+0x6a>
			{
				OS_Control.OSTasks[i]->TimingWaiting.Ticks_Count--;
 8000b70:	4a15      	ldr	r2, [pc, #84]	; (8000bc8 <MYRTOS_Update_TasksWaitingTime+0x84>)
 8000b72:	687b      	ldr	r3, [r7, #4]
 8000b74:	f852 3023 	ldr.w	r3, [r2, r3, lsl #2]
 8000b78:	6c1a      	ldr	r2, [r3, #64]	; 0x40
 8000b7a:	3a01      	subs	r2, #1
 8000b7c:	641a      	str	r2, [r3, #64]	; 0x40
				if(OS_Control.OSTasks[i]->TimingWaiting.Ticks_Count ==0)
 8000b7e:	4a12      	ldr	r2, [pc, #72]	; (8000bc8 <MYRTOS_Update_TasksWaitingTime+0x84>)
 8000b80:	687b      	ldr	r3, [r7, #4]
 8000b82:	f852 3023 	ldr.w	r3, [r2, r3, lsl #2]
 8000b86:	6c1b      	ldr	r3, [r3, #64]	; 0x40
 8000b88:	2b00      	cmp	r3, #0
 8000b8a:	d110      	bne.n	8000bae <MYRTOS_Update_TasksWaitingTime+0x6a>
				{
					OS_Control.OSTasks[i]->TimingWaiting.Blocking =Disable;
 8000b8c:	4a0e      	ldr	r2, [pc, #56]	; (8000bc8 <MYRTOS_Update_TasksWaitingTime+0x84>)
 8000b8e:	687b      	ldr	r3, [r7, #4]
 8000b90:	f852 3023 	ldr.w	r3, [r2, r3, lsl #2]
 8000b94:	2201      	movs	r2, #1
 8000b96:	f883 203c 	strb.w	r2, [r3, #60]	; 0x3c
					OS_Control.OSTasks[i]->TaskState=Waiting;
 8000b9a:	4a0b      	ldr	r2, [pc, #44]	; (8000bc8 <MYRTOS_Update_TasksWaitingTime+0x84>)
 8000b9c:	687b      	ldr	r3, [r7, #4]
 8000b9e:	f852 3023 	ldr.w	r3, [r2, r3, lsl #2]
 8000ba2:	2202      	movs	r2, #2
 8000ba4:	f883 203a 	strb.w	r2, [r3, #58]	; 0x3a
					MYRTOS_OS_SVC_SET(SVC_TaskWaitingTime);
 8000ba8:	2002      	movs	r0, #2
 8000baa:	f7ff ff57 	bl	8000a5c <MYRTOS_OS_SVC_SET>
	for (int i =0 ; i <OS_Control.NoOfActiveTasks ;i++)
 8000bae:	687b      	ldr	r3, [r7, #4]
 8000bb0:	3301      	adds	r3, #1
 8000bb2:	607b      	str	r3, [r7, #4]
 8000bb4:	4b04      	ldr	r3, [pc, #16]	; (8000bc8 <MYRTOS_Update_TasksWaitingTime+0x84>)
 8000bb6:	f8d3 219c 	ldr.w	r2, [r3, #412]	; 0x19c
 8000bba:	687b      	ldr	r3, [r7, #4]
 8000bbc:	429a      	cmp	r2, r3
 8000bbe:	d8c7      	bhi.n	8000b50 <MYRTOS_Update_TasksWaitingTime+0xc>
				}
			}
		}
	}
}
 8000bc0:	bf00      	nop
 8000bc2:	3708      	adds	r7, #8
 8000bc4:	46bd      	mov	sp, r7
 8000bc6:	bd80      	pop	{r7, pc}
 8000bc8:	20000038 	.word	0x20000038

08000bcc <EXTI0_IRQHandler>:
 * ===================      ISR Functions    ====================
 * ==============================================================
 */

void EXTI0_IRQHandler(void)
{
 8000bcc:	b580      	push	{r7, lr}
 8000bce:	af00      	add	r7, sp, #0
	//Clear by Writing a '1' into the bit Pending register (EXTI_PR)
	EXTI->PR |=1<<0;
 8000bd0:	4b05      	ldr	r3, [pc, #20]	; (8000be8 <EXTI0_IRQHandler+0x1c>)
 8000bd2:	695b      	ldr	r3, [r3, #20]
 8000bd4:	4a04      	ldr	r2, [pc, #16]	; (8000be8 <EXTI0_IRQHandler+0x1c>)
 8000bd6:	f043 0301 	orr.w	r3, r3, #1
 8000bda:	6153      	str	r3, [r2, #20]
	//Call IRQ_CALL
	GP_IRQ_CallBack[0]();
 8000bdc:	4b03      	ldr	r3, [pc, #12]	; (8000bec <EXTI0_IRQHandler+0x20>)
 8000bde:	681b      	ldr	r3, [r3, #0]
 8000be0:	4798      	blx	r3
}
 8000be2:	bf00      	nop
 8000be4:	bd80      	pop	{r7, pc}
 8000be6:	bf00      	nop
 8000be8:	40010400 	.word	0x40010400
 8000bec:	20000268 	.word	0x20000268

08000bf0 <EXTI1_IRQHandler>:

void EXTI1_IRQHandler(void)
{
 8000bf0:	b580      	push	{r7, lr}
 8000bf2:	af00      	add	r7, sp, #0
	EXTI->PR |=1<<1;
 8000bf4:	4b05      	ldr	r3, [pc, #20]	; (8000c0c <EXTI1_IRQHandler+0x1c>)
 8000bf6:	695b      	ldr	r3, [r3, #20]
 8000bf8:	4a04      	ldr	r2, [pc, #16]	; (8000c0c <EXTI1_IRQHandler+0x1c>)
 8000bfa:	f043 0302 	orr.w	r3, r3, #2
 8000bfe:	6153      	str	r3, [r2, #20]
	GP_IRQ_CallBack[1]();
 8000c00:	4b03      	ldr	r3, [pc, #12]	; (8000c10 <EXTI1_IRQHandler+0x20>)
 8000c02:	685b      	ldr	r3, [r3, #4]
 8000c04:	4798      	blx	r3
}
 8000c06:	bf00      	nop
 8000c08:	bd80      	pop	{r7, pc}
 8000c0a:	bf00      	nop
 8000c0c:	40010400 	.word	0x40010400
 8000c10:	20000268 	.word	0x20000268

08000c14 <EXTI2_IRQHandler>:

void EXTI2_IRQHandler(void)
{
 8000c14:	b580      	push	{r7, lr}
 8000c16:	af00      	add	r7, sp, #0
	EXTI->PR |=1<<2;
 8000c18:	4b05      	ldr	r3, [pc, #20]	; (8000c30 <EXTI2_IRQHandler+0x1c>)
 8000c1a:	695b      	ldr	r3, [r3, #20]
 8000c1c:	4a04      	ldr	r2, [pc, #16]	; (8000c30 <EXTI2_IRQHandler+0x1c>)
 8000c1e:	f043 0304 	orr.w	r3, r3, #4
 8000c22:	6153      	str	r3, [r2, #20]
	GP_IRQ_CallBack[2]();
 8000c24:	4b03      	ldr	r3, [pc, #12]	; (8000c34 <EXTI2_IRQHandler+0x20>)
 8000c26:	689b      	ldr	r3, [r3, #8]
 8000c28:	4798      	blx	r3
}
 8000c2a:	bf00      	nop
 8000c2c:	bd80      	pop	{r7, pc}
 8000c2e:	bf00      	nop
 8000c30:	40010400 	.word	0x40010400
 8000c34:	20000268 	.word	0x20000268

08000c38 <EXTI3_IRQHandler>:


void EXTI3_IRQHandler(void)
{
 8000c38:	b580      	push	{r7, lr}
 8000c3a:	af00      	add	r7, sp, #0
	EXTI->PR |=1<<3;
 8000c3c:	4b05      	ldr	r3, [pc, #20]	; (8000c54 <EXTI3_IRQHandler+0x1c>)
 8000c3e:	695b      	ldr	r3, [r3, #20]
 8000c40:	4a04      	ldr	r2, [pc, #16]	; (8000c54 <EXTI3_IRQHandler+0x1c>)
 8000c42:	f043 0308 	orr.w	r3, r3, #8
 8000c46:	6153      	str	r3, [r2, #20]
	GP_IRQ_CallBack[3]();
 8000c48:	4b03      	ldr	r3, [pc, #12]	; (8000c58 <EXTI3_IRQHandler+0x20>)
 8000c4a:	68db      	ldr	r3, [r3, #12]
 8000c4c:	4798      	blx	r3
}
 8000c4e:	bf00      	nop
 8000c50:	bd80      	pop	{r7, pc}
 8000c52:	bf00      	nop
 8000c54:	40010400 	.word	0x40010400
 8000c58:	20000268 	.word	0x20000268

08000c5c <EXTI4_IRQHandler>:


void EXTI4_IRQHandler(void)
{
 8000c5c:	b580      	push	{r7, lr}
 8000c5e:	af00      	add	r7, sp, #0
	EXTI->PR |=1<<4;
 8000c60:	4b05      	ldr	r3, [pc, #20]	; (8000c78 <EXTI4_IRQHandler+0x1c>)
 8000c62:	695b      	ldr	r3, [r3, #20]
 8000c64:	4a04      	ldr	r2, [pc, #16]	; (8000c78 <EXTI4_IRQHandler+0x1c>)
 8000c66:	f043 0310 	orr.w	r3, r3, #16
 8000c6a:	6153      	str	r3, [r2, #20]
	GP_IRQ_CallBack[4]();
 8000c6c:	4b03      	ldr	r3, [pc, #12]	; (8000c7c <EXTI4_IRQHandler+0x20>)
 8000c6e:	691b      	ldr	r3, [r3, #16]
 8000c70:	4798      	blx	r3

}
 8000c72:	bf00      	nop
 8000c74:	bd80      	pop	{r7, pc}
 8000c76:	bf00      	nop
 8000c78:	40010400 	.word	0x40010400
 8000c7c:	20000268 	.word	0x20000268

08000c80 <EXTI9_5_IRQHandler>:

void EXTI9_5_IRQHandler(void)
{
 8000c80:	b580      	push	{r7, lr}
 8000c82:	af00      	add	r7, sp, #0
	if(EXTI->PR & 1<<5) {EXTI->PR |=(1<<5)	;GP_IRQ_CallBack[5]();	}
 8000c84:	4b26      	ldr	r3, [pc, #152]	; (8000d20 <EXTI9_5_IRQHandler+0xa0>)
 8000c86:	695b      	ldr	r3, [r3, #20]
 8000c88:	f003 0320 	and.w	r3, r3, #32
 8000c8c:	2b00      	cmp	r3, #0
 8000c8e:	d008      	beq.n	8000ca2 <EXTI9_5_IRQHandler+0x22>
 8000c90:	4b23      	ldr	r3, [pc, #140]	; (8000d20 <EXTI9_5_IRQHandler+0xa0>)
 8000c92:	695b      	ldr	r3, [r3, #20]
 8000c94:	4a22      	ldr	r2, [pc, #136]	; (8000d20 <EXTI9_5_IRQHandler+0xa0>)
 8000c96:	f043 0320 	orr.w	r3, r3, #32
 8000c9a:	6153      	str	r3, [r2, #20]
 8000c9c:	4b21      	ldr	r3, [pc, #132]	; (8000d24 <EXTI9_5_IRQHandler+0xa4>)
 8000c9e:	695b      	ldr	r3, [r3, #20]
 8000ca0:	4798      	blx	r3
	if(EXTI->PR & 1<<6) {EXTI->PR |=(1<<6)	;GP_IRQ_CallBack[6]();	}
 8000ca2:	4b1f      	ldr	r3, [pc, #124]	; (8000d20 <EXTI9_5_IRQHandler+0xa0>)
 8000ca4:	695b      	ldr	r3, [r3, #20]
 8000ca6:	f003 0340 	and.w	r3, r3, #64	; 0x40
 8000caa:	2b00      	cmp	r3, #0
 8000cac:	d008      	beq.n	8000cc0 <EXTI9_5_IRQHandler+0x40>
 8000cae:	4b1c      	ldr	r3, [pc, #112]	; (8000d20 <EXTI9_5_IRQHandler+0xa0>)
 8000cb0:	695b      	ldr	r3, [r3, #20]
 8000cb2:	4a1b      	ldr	r2, [pc, #108]	; (8000d20 <EXTI9_5_IRQHandler+0xa0>)
 8000cb4:	f043 0340 	orr.w	r3, r3, #64	; 0x40
 8000cb8:	6153      	str	r3, [r2, #20]
 8000cba:	4b1a      	ldr	r3, [pc, #104]	; (8000d24 <EXTI9_5_IRQHandler+0xa4>)
 8000cbc:	699b      	ldr	r3, [r3, #24]
 8000cbe:	4798      	blx	r3
	if(EXTI->PR & 1<<7) {EXTI->PR |=(1<<7)	;GP_IRQ_CallBack[7]();	}
 8000cc0:	4b17      	ldr	r3, [pc, #92]	; (8000d20 <EXTI9_5_IRQHandler+0xa0>)
 8000cc2:	695b      	ldr	r3, [r3, #20]
 8000cc4:	f003 0380 	and.w	r3, r3, #128	; 0x80
 8000cc8:	2b00      	cmp	r3, #0
 8000cca:	d008      	beq.n	8000cde <EXTI9_5_IRQHandler+0x5e>
 8000ccc:	4b14      	ldr	r3, [pc, #80]	; (8000d20 <EXTI9_5_IRQHandler+0xa0>)
 8000cce:	695b      	ldr	r3, [r3, #20]
 8000cd0:	4a13      	ldr	r2, [pc, #76]	; (8000d20 <EXTI9_5_IRQHandler+0xa0>)
 8000cd2:	f043 0380 	orr.w	r3, r3, #128	; 0x80
 8000cd6:	6153      	str	r3, [r2, #20]
 8000cd8:	4b12      	ldr	r3, [pc, #72]	; (8000d24 <EXTI9_5_IRQHandler+0xa4>)
 8000cda:	69db      	ldr	r3, [r3, #28]
 8000cdc:	4798      	blx	r3
	if(EXTI->PR & 1<<8) {EXTI->PR |=(1<<8)	;GP_IRQ_CallBack[8]();	}
 8000cde:	4b10      	ldr	r3, [pc, #64]	; (8000d20 <EXTI9_5_IRQHandler+0xa0>)
 8000ce0:	695b      	ldr	r3, [r3, #20]
 8000ce2:	f403 7380 	and.w	r3, r3, #256	; 0x100
 8000ce6:	2b00      	cmp	r3, #0
 8000ce8:	d008      	beq.n	8000cfc <EXTI9_5_IRQHandler+0x7c>
 8000cea:	4b0d      	ldr	r3, [pc, #52]	; (8000d20 <EXTI9_5_IRQHandler+0xa0>)
 8000cec:	695b      	ldr	r3, [r3, #20]
 8000cee:	4a0c      	ldr	r2, [pc, #48]	; (8000d20 <EXTI9_5_IRQHandler+0xa0>)
 8000cf0:	f443 7380 	orr.w	r3, r3, #256	; 0x100
 8000cf4:	6153      	str	r3, [r2, #20]
 8000cf6:	4b0b      	ldr	r3, [pc, #44]	; (8000d24 <EXTI9_5_IRQHandler+0xa4>)
 8000cf8:	6a1b      	ldr	r3, [r3, #32]
 8000cfa:	4798      	blx	r3
	if(EXTI->PR & 1<<9) {EXTI->PR |=(1<<9)	;GP_IRQ_CallBack[9]();	}
 8000cfc:	4b08      	ldr	r3, [pc, #32]	; (8000d20 <EXTI9_5_IRQHandler+0xa0>)
 8000cfe:	695b      	ldr	r3, [r3, #20]
 8000d00:	f403 7300 	and.w	r3, r3, #512	; 0x200
 8000d04:	2b00      	cmp	r3, #0
 8000d06:	d008      	beq.n	8000d1a <EXTI9_5_IRQHandler+0x9a>
 8000d08:	4b05      	ldr	r3, [pc, #20]	; (8000d20 <EXTI9_5_IRQHandler+0xa0>)
 8000d0a:	695b      	ldr	r3, [r3, #20]
 8000d0c:	4a04      	ldr	r2, [pc, #16]	; (8000d20 <EXTI9_5_IRQHandler+0xa0>)
 8000d0e:	f443 7300 	orr.w	r3, r3, #512	; 0x200
 8000d12:	6153      	str	r3, [r2, #20]
 8000d14:	4b03      	ldr	r3, [pc, #12]	; (8000d24 <EXTI9_5_IRQHandler+0xa4>)
 8000d16:	6a5b      	ldr	r3, [r3, #36]	; 0x24
 8000d18:	4798      	blx	r3

}
 8000d1a:	bf00      	nop
 8000d1c:	bd80      	pop	{r7, pc}
 8000d1e:	bf00      	nop
 8000d20:	40010400 	.word	0x40010400
 8000d24:	20000268 	.word	0x20000268

08000d28 <EXTI15_10_IRQHandler>:
void EXTI15_10_IRQHandler(void)
{
 8000d28:	b580      	push	{r7, lr}
 8000d2a:	af00      	add	r7, sp, #0
	if(EXTI->PR & 1<<10) {EXTI->PR |=(1<<10)	;GP_IRQ_CallBack[10]();	}
 8000d2c:	4b2d      	ldr	r3, [pc, #180]	; (8000de4 <EXTI15_10_IRQHandler+0xbc>)
 8000d2e:	695b      	ldr	r3, [r3, #20]
 8000d30:	f403 6380 	and.w	r3, r3, #1024	; 0x400
 8000d34:	2b00      	cmp	r3, #0
 8000d36:	d008      	beq.n	8000d4a <EXTI15_10_IRQHandler+0x22>
 8000d38:	4b2a      	ldr	r3, [pc, #168]	; (8000de4 <EXTI15_10_IRQHandler+0xbc>)
 8000d3a:	695b      	ldr	r3, [r3, #20]
 8000d3c:	4a29      	ldr	r2, [pc, #164]	; (8000de4 <EXTI15_10_IRQHandler+0xbc>)
 8000d3e:	f443 6380 	orr.w	r3, r3, #1024	; 0x400
 8000d42:	6153      	str	r3, [r2, #20]
 8000d44:	4b28      	ldr	r3, [pc, #160]	; (8000de8 <EXTI15_10_IRQHandler+0xc0>)
 8000d46:	6a9b      	ldr	r3, [r3, #40]	; 0x28
 8000d48:	4798      	blx	r3
	if(EXTI->PR & 1<<11) {EXTI->PR |=(1<<11)	;GP_IRQ_CallBack[11]();	}
 8000d4a:	4b26      	ldr	r3, [pc, #152]	; (8000de4 <EXTI15_10_IRQHandler+0xbc>)
 8000d4c:	695b      	ldr	r3, [r3, #20]
 8000d4e:	f403 6300 	and.w	r3, r3, #2048	; 0x800
 8000d52:	2b00      	cmp	r3, #0
 8000d54:	d008      	beq.n	8000d68 <EXTI15_10_IRQHandler+0x40>
 8000d56:	4b23      	ldr	r3, [pc, #140]	; (8000de4 <EXTI15_10_IRQHandler+0xbc>)
 8000d58:	695b      	ldr	r3, [r3, #20]
 8000d5a:	4a22      	ldr	r2, [pc, #136]	; (8000de4 <EXTI15_10_IRQHandler+0xbc>)
 8000d5c:	f443 6300 	orr.w	r3, r3, #2048	; 0x800
 8000d60:	6153      	str	r3, [r2, #20]
 8000d62:	4b21      	ldr	r3, [pc, #132]	; (8000de8 <EXTI15_10_IRQHandler+0xc0>)
 8000d64:	6adb      	ldr	r3, [r3, #44]	; 0x2c
 8000d66:	4798      	blx	r3
	if(EXTI->PR & 1<<12) {EXTI->PR |=(1<<12)	;GP_IRQ_CallBack[12]();	}
 8000d68:	4b1e      	ldr	r3, [pc, #120]	; (8000de4 <EXTI15_10_IRQHandler+0xbc>)
 8000d6a:	695b      	ldr	r3, [r3, #20]
 8000d6c:	f403 5380 	and.w	r3, r3, #4096	; 0x1000
 8000d70:	2b00      	cmp	r3, #0
 8000d72:	d008      	beq.n	8000d86 <EXTI15_10_IRQHandler+0x5e>
 8000d74:	4b1b      	ldr	r3, [pc, #108]	; (8000de4 <EXTI15_10_IRQHandler+0xbc>)
 8000d76:	695b      	ldr	r3, [r3, #20]
 8000d78:	4a1a      	ldr	r2, [pc, #104]	; (8000de4 <EXTI15_10_IRQHandler+0xbc>)
 8000d7a:	f443 5380 	orr.w	r3, r3, #4096	; 0x1000
 8000d7e:	6153      	str	r3, [r2, #20]
 8000d80:	4b19      	ldr	r3, [pc, #100]	; (8000de8 <EXTI15_10_IRQHandler+0xc0>)
 8000d82:	6b1b      	ldr	r3, [r3, #48]	; 0x30
 8000d84:	4798      	blx	r3
	if(EXTI->PR & 1<<13) {EXTI->PR |=(1<<13)	;GP_IRQ_CallBack[13]();	}
 8000d86:	4b17      	ldr	r3, [pc, #92]	; (8000de4 <EXTI15_10_IRQHandler+0xbc>)
 8000d88:	695b      	ldr	r3, [r3, #20]
 8000d8a:	f403 5300 	and.w	r3, r3, #8192	; 0x2000
 8000d8e:	2b00      	cmp	r3, #0
 8000d90:	d008      	beq.n	8000da4 <EXTI15_10_IRQHandler+0x7c>
 8000d92:	4b14      	ldr	r3, [pc, #80]	; (8000de4 <EXTI15_10_IRQHandler+0xbc>)
 8000d94:	695b      	ldr	r3, [r3, #20]
 8000d96:	4a13      	ldr	r2, [pc, #76]	; (8000de4 <EXTI15_10_IRQHandler+0xbc>)
 8000d98:	f443 5300 	orr.w	r3, r3, #8192	; 0x2000
 8000d9c:	6153      	str	r3, [r2, #20]
 8000d9e:	4b12      	ldr	r3, [pc, #72]	; (8000de8 <EXTI15_10_IRQHandler+0xc0>)
 8000da0:	6b5b      	ldr	r3, [r3, #52]	; 0x34
 8000da2:	4798      	blx	r3
	if(EXTI->PR & 1<<14) {EXTI->PR |=(1<<14)	;GP_IRQ_CallBack[14]();	}
 8000da4:	4b0f      	ldr	r3, [pc, #60]	; (8000de4 <EXTI15_10_IRQHandler+0xbc>)
 8000da6:	695b      	ldr	r3, [r3, #20]
 8000da8:	f403 4380 	and.w	r3, r3, #16384	; 0x4000
 8000dac:	2b00      	cmp	r3, #0
 8000dae:	d008      	beq.n	8000dc2 <EXTI15_10_IRQHandler+0x9a>
 8000db0:	4b0c      	ldr	r3, [pc, #48]	; (8000de4 <EXTI15_10_IRQHandler+0xbc>)
 8000db2:	695b      	ldr	r3, [r3, #20]
 8000db4:	4a0b      	ldr	r2, [pc, #44]	; (8000de4 <EXTI15_10_IRQHandler+0xbc>)
 8000db6:	f443 4380 	orr.w	r3, r3, #16384	; 0x4000
 8000dba:	6153      	str	r3, [r2, #20]
 8000dbc:	4b0a      	ldr	r3, [pc, #40]	; (8000de8 <EXTI15_10_IRQHandler+0xc0>)
 8000dbe:	6b9b      	ldr	r3, [r3, #56]	; 0x38
 8000dc0:	4798      	blx	r3
	if(EXTI->PR & 1<<15) {EXTI->PR |=(1<<15)	;GP_IRQ_CallBack[15]();	}
 8000dc2:	4b08      	ldr	r3, [pc, #32]	; (8000de4 <EXTI15_10_IRQHandler+0xbc>)
 8000dc4:	695b      	ldr	r3, [r3, #20]
 8000dc6:	f403 4300 	and.w	r3, r3, #32768	; 0x8000
 8000dca:	2b00      	cmp	r3, #0
 8000dcc:	d008      	beq.n	8000de0 <EXTI15_10_IRQHandler+0xb8>
 8000dce:	4b05      	ldr	r3, [pc, #20]	; (8000de4 <EXTI15_10_IRQHandler+0xbc>)
 8000dd0:	695b      	ldr	r3, [r3, #20]
 8000dd2:	4a04      	ldr	r2, [pc, #16]	; (8000de4 <EXTI15_10_IRQHandler+0xbc>)
 8000dd4:	f443 4300 	orr.w	r3, r3, #32768	; 0x8000
 8000dd8:	6153      	str	r3, [r2, #20]
 8000dda:	4b03      	ldr	r3, [pc, #12]	; (8000de8 <EXTI15_10_IRQHandler+0xc0>)
 8000ddc:	6bdb      	ldr	r3, [r3, #60]	; 0x3c
 8000dde:	4798      	blx	r3
}
 8000de0:	bf00      	nop
 8000de2:	bd80      	pop	{r7, pc}
 8000de4:	40010400 	.word	0x40010400
 8000de8:	20000268 	.word	0x20000268

08000dec <SPI1_IRQHandler>:
 * 								IRQ
 * =========================================================
 */

void SPI1_IRQHandler(void)
{
 8000dec:	b580      	push	{r7, lr}
 8000dee:	b082      	sub	sp, #8
 8000df0:	af00      	add	r7, sp, #0
	struct S_IRQ_SRC irq_src;
	irq_src.TXE =((SPI1->SPI_SR & (1<<1)) >> 1);
 8000df2:	4b13      	ldr	r3, [pc, #76]	; (8000e40 <SPI1_IRQHandler+0x54>)
 8000df4:	689b      	ldr	r3, [r3, #8]
 8000df6:	085b      	lsrs	r3, r3, #1
 8000df8:	f003 0301 	and.w	r3, r3, #1
 8000dfc:	b2da      	uxtb	r2, r3
 8000dfe:	793b      	ldrb	r3, [r7, #4]
 8000e00:	f362 0300 	bfi	r3, r2, #0, #1
 8000e04:	713b      	strb	r3, [r7, #4]
	irq_src.RXNE =((SPI1->SPI_SR & (1<<0)) >> 0);
 8000e06:	4b0e      	ldr	r3, [pc, #56]	; (8000e40 <SPI1_IRQHandler+0x54>)
 8000e08:	689b      	ldr	r3, [r3, #8]
 8000e0a:	f003 0301 	and.w	r3, r3, #1
 8000e0e:	b2da      	uxtb	r2, r3
 8000e10:	793b      	ldrb	r3, [r7, #4]
 8000e12:	f362 0341 	bfi	r3, r2, #1, #1
 8000e16:	713b      	strb	r3, [r7, #4]
	irq_src.ERRI =((SPI1->SPI_SR & (1<<4)) >> 4);
 8000e18:	4b09      	ldr	r3, [pc, #36]	; (8000e40 <SPI1_IRQHandler+0x54>)
 8000e1a:	689b      	ldr	r3, [r3, #8]
 8000e1c:	091b      	lsrs	r3, r3, #4
 8000e1e:	f003 0301 	and.w	r3, r3, #1
 8000e22:	b2da      	uxtb	r2, r3
 8000e24:	793b      	ldrb	r3, [r7, #4]
 8000e26:	f362 0382 	bfi	r3, r2, #2, #1
 8000e2a:	713b      	strb	r3, [r7, #4]
	Global_SPI_Config[SPI1_INDEX]->P_IRQ_CallBack(irq_src);
 8000e2c:	4b05      	ldr	r3, [pc, #20]	; (8000e44 <SPI1_IRQHandler+0x58>)
 8000e2e:	681b      	ldr	r3, [r3, #0]
 8000e30:	695b      	ldr	r3, [r3, #20]
 8000e32:	7938      	ldrb	r0, [r7, #4]
 8000e34:	4798      	blx	r3
}
 8000e36:	bf00      	nop
 8000e38:	3708      	adds	r7, #8
 8000e3a:	46bd      	mov	sp, r7
 8000e3c:	bd80      	pop	{r7, pc}
 8000e3e:	bf00      	nop
 8000e40:	40013000 	.word	0x40013000
 8000e44:	2000001c 	.word	0x2000001c

08000e48 <SPI2_IRQHandler>:

void SPI2_IRQHandler(void)
{
 8000e48:	b580      	push	{r7, lr}
 8000e4a:	b082      	sub	sp, #8
 8000e4c:	af00      	add	r7, sp, #0
	struct S_IRQ_SRC irq_src;
	irq_src.TXE =((SPI1->SPI_SR & (1<<1))>>1);
 8000e4e:	4b13      	ldr	r3, [pc, #76]	; (8000e9c <SPI2_IRQHandler+0x54>)
 8000e50:	689b      	ldr	r3, [r3, #8]
 8000e52:	085b      	lsrs	r3, r3, #1
 8000e54:	f003 0301 	and.w	r3, r3, #1
 8000e58:	b2da      	uxtb	r2, r3
 8000e5a:	793b      	ldrb	r3, [r7, #4]
 8000e5c:	f362 0300 	bfi	r3, r2, #0, #1
 8000e60:	713b      	strb	r3, [r7, #4]
	irq_src.RXNE =((SPI1->SPI_SR & (1<<0))>>0);
 8000e62:	4b0e      	ldr	r3, [pc, #56]	; (8000e9c <SPI2_IRQHandler+0x54>)
 8000e64:	689b      	ldr	r3, [r3, #8]
 8000e66:	f003 0301 	and.w	r3, r3, #1
 8000e6a:	b2da      	uxtb	r2, r3
 8000e6c:	793b      	ldrb	r3, [r7, #4]
 8000e6e:	f362 0341 	bfi	r3, r2, #1, #1
 8000e72:	713b      	strb	r3, [r7, #4]
	irq_src.ERRI =((SPI1->SPI_SR & (1<<4))>>4);
 8000e74:	4b09      	ldr	r3, [pc, #36]	; (8000e9c <SPI2_IRQHandler+0x54>)
 8000e76:	689b      	ldr	r3, [r3, #8]
 8000e78:	091b      	lsrs	r3, r3, #4
 8000e7a:	f003 0301 	and.w	r3, r3, #1
 8000e7e:	b2da      	uxtb	r2, r3
 8000e80:	793b      	ldrb	r3, [r7, #4]
 8000e82:	f362 0382 	bfi	r3, r2, #2, #1
 8000e86:	713b      	strb	r3, [r7, #4]

	Global_SPI_Config[SPI2_INDEX]->P_IRQ_CallBack(irq_src);
 8000e88:	4b05      	ldr	r3, [pc, #20]	; (8000ea0 <SPI2_IRQHandler+0x58>)
 8000e8a:	685b      	ldr	r3, [r3, #4]
 8000e8c:	695b      	ldr	r3, [r3, #20]
 8000e8e:	7938      	ldrb	r0, [r7, #4]
 8000e90:	4798      	blx	r3
}
 8000e92:	bf00      	nop
 8000e94:	3708      	adds	r7, #8
 8000e96:	46bd      	mov	sp, r7
 8000e98:	bd80      	pop	{r7, pc}
 8000e9a:	bf00      	nop
 8000e9c:	40013000 	.word	0x40013000
 8000ea0:	2000001c 	.word	0x2000001c

08000ea4 <USART1_IRQHandler>:




void USART1_IRQHandler(void)
{
 8000ea4:	b580      	push	{r7, lr}
 8000ea6:	af00      	add	r7, sp, #0
//	Global_UART_Config->P_IRQ_CallBack();
	pFun[0]();
 8000ea8:	4b02      	ldr	r3, [pc, #8]	; (8000eb4 <USART1_IRQHandler+0x10>)
 8000eaa:	681b      	ldr	r3, [r3, #0]
 8000eac:	4798      	blx	r3
}
 8000eae:	bf00      	nop
 8000eb0:	bd80      	pop	{r7, pc}
 8000eb2:	bf00      	nop
 8000eb4:	200002a4 	.word	0x200002a4

08000eb8 <USART2_IRQHandler>:

void USART2_IRQHandler(void)
{
 8000eb8:	b580      	push	{r7, lr}
 8000eba:	af00      	add	r7, sp, #0
//	Global_UART_Config->P_IRQ_CallBack();
	pFun[1]();
 8000ebc:	4b02      	ldr	r3, [pc, #8]	; (8000ec8 <USART2_IRQHandler+0x10>)
 8000ebe:	685b      	ldr	r3, [r3, #4]
 8000ec0:	4798      	blx	r3
}
 8000ec2:	bf00      	nop
 8000ec4:	bd80      	pop	{r7, pc}
 8000ec6:	bf00      	nop
 8000ec8:	200002a4 	.word	0x200002a4

08000ecc <USART3_IRQHandler>:

void USART3_IRQHandler(void)
{
 8000ecc:	b580      	push	{r7, lr}
 8000ece:	af00      	add	r7, sp, #0
//	Global_UART_Config->P_IRQ_CallBack();
	pFun[2]();
 8000ed0:	4b02      	ldr	r3, [pc, #8]	; (8000edc <USART3_IRQHandler+0x10>)
 8000ed2:	689b      	ldr	r3, [r3, #8]
 8000ed4:	4798      	blx	r3
}
 8000ed6:	bf00      	nop
 8000ed8:	bd80      	pop	{r7, pc}
 8000eda:	bf00      	nop
 8000edc:	200002a4 	.word	0x200002a4

08000ee0 <task1>:
Task_ref Task1,Task2,Task3,Task4;
unsigned char  Task1LED ,Task2LED,Task3LED,Task4LED;


void task1()
{
 8000ee0:	b580      	push	{r7, lr}
 8000ee2:	af00      	add	r7, sp, #0
	static unsigned int Count =0;
	while(1){
		//Task 4 Code
		Task1LED ^=1;
 8000ee4:	4b0d      	ldr	r3, [pc, #52]	; (8000f1c <task1+0x3c>)
 8000ee6:	781b      	ldrb	r3, [r3, #0]
 8000ee8:	f083 0301 	eor.w	r3, r3, #1
 8000eec:	b2da      	uxtb	r2, r3
 8000eee:	4b0b      	ldr	r3, [pc, #44]	; (8000f1c <task1+0x3c>)
 8000ef0:	701a      	strb	r2, [r3, #0]
		if(Count == 100)
 8000ef2:	4b0b      	ldr	r3, [pc, #44]	; (8000f20 <task1+0x40>)
 8000ef4:	681b      	ldr	r3, [r3, #0]
 8000ef6:	2b64      	cmp	r3, #100	; 0x64
 8000ef8:	d102      	bne.n	8000f00 <task1+0x20>
			MYRTOS_ActivateTask(&Task2);
 8000efa:	480a      	ldr	r0, [pc, #40]	; (8000f24 <task1+0x44>)
 8000efc:	f7ff fdd4 	bl	8000aa8 <MYRTOS_ActivateTask>
		if (Count == 200)
 8000f00:	4b07      	ldr	r3, [pc, #28]	; (8000f20 <task1+0x40>)
 8000f02:	681b      	ldr	r3, [r3, #0]
 8000f04:	2bc8      	cmp	r3, #200	; 0xc8
 8000f06:	d102      	bne.n	8000f0e <task1+0x2e>
			Count =0;
 8000f08:	4b05      	ldr	r3, [pc, #20]	; (8000f20 <task1+0x40>)
 8000f0a:	2200      	movs	r2, #0
 8000f0c:	601a      	str	r2, [r3, #0]
		Count++;
 8000f0e:	4b04      	ldr	r3, [pc, #16]	; (8000f20 <task1+0x40>)
 8000f10:	681b      	ldr	r3, [r3, #0]
 8000f12:	3301      	adds	r3, #1
 8000f14:	4a02      	ldr	r2, [pc, #8]	; (8000f20 <task1+0x40>)
 8000f16:	6013      	str	r3, [r2, #0]
		Task1LED ^=1;
 8000f18:	e7e4      	b.n	8000ee4 <task1+0x4>
 8000f1a:	bf00      	nop
 8000f1c:	20000380 	.word	0x20000380
 8000f20:	20000024 	.word	0x20000024
 8000f24:	20000384 	.word	0x20000384

08000f28 <task2>:
	}
}
void task2()
{
 8000f28:	b580      	push	{r7, lr}
 8000f2a:	af00      	add	r7, sp, #0
	static unsigned int Count =0;
	while(1){
		//Task 4 Code
		Task2LED ^=1;
 8000f2c:	4b0e      	ldr	r3, [pc, #56]	; (8000f68 <task2+0x40>)
 8000f2e:	781b      	ldrb	r3, [r3, #0]
 8000f30:	f083 0301 	eor.w	r3, r3, #1
 8000f34:	b2da      	uxtb	r2, r3
 8000f36:	4b0c      	ldr	r3, [pc, #48]	; (8000f68 <task2+0x40>)
 8000f38:	701a      	strb	r2, [r3, #0]
		if(Count == 100)
 8000f3a:	4b0c      	ldr	r3, [pc, #48]	; (8000f6c <task2+0x44>)
 8000f3c:	681b      	ldr	r3, [r3, #0]
 8000f3e:	2b64      	cmp	r3, #100	; 0x64
 8000f40:	d102      	bne.n	8000f48 <task2+0x20>
			MYRTOS_ActivateTask(&Task3);
 8000f42:	480b      	ldr	r0, [pc, #44]	; (8000f70 <task2+0x48>)
 8000f44:	f7ff fdb0 	bl	8000aa8 <MYRTOS_ActivateTask>
		if(Count == 200)
 8000f48:	4b08      	ldr	r3, [pc, #32]	; (8000f6c <task2+0x44>)
 8000f4a:	681b      	ldr	r3, [r3, #0]
 8000f4c:	2bc8      	cmp	r3, #200	; 0xc8
 8000f4e:	d105      	bne.n	8000f5c <task2+0x34>
		{
			Count =0;
 8000f50:	4b06      	ldr	r3, [pc, #24]	; (8000f6c <task2+0x44>)
 8000f52:	2200      	movs	r2, #0
 8000f54:	601a      	str	r2, [r3, #0]
			MYRTOS_TerminateTask(&Task2);
 8000f56:	4807      	ldr	r0, [pc, #28]	; (8000f74 <task2+0x4c>)
 8000f58:	f7ff fdb6 	bl	8000ac8 <MYRTOS_TerminateTask>
		}
		Count++;
 8000f5c:	4b03      	ldr	r3, [pc, #12]	; (8000f6c <task2+0x44>)
 8000f5e:	681b      	ldr	r3, [r3, #0]
 8000f60:	3301      	adds	r3, #1
 8000f62:	4a02      	ldr	r2, [pc, #8]	; (8000f6c <task2+0x44>)
 8000f64:	6013      	str	r3, [r2, #0]
		Task2LED ^=1;
 8000f66:	e7e1      	b.n	8000f2c <task2+0x4>
 8000f68:	20000339 	.word	0x20000339
 8000f6c:	20000028 	.word	0x20000028
 8000f70:	2000033c 	.word	0x2000033c
 8000f74:	20000384 	.word	0x20000384

08000f78 <task3>:
	}
}
void task3()
{
 8000f78:	b580      	push	{r7, lr}
 8000f7a:	af00      	add	r7, sp, #0
	static unsigned int Count =0;
	while(1){
		//Task 4 Code
		Task3LED ^=1;
 8000f7c:	4b0e      	ldr	r3, [pc, #56]	; (8000fb8 <task3+0x40>)
 8000f7e:	781b      	ldrb	r3, [r3, #0]
 8000f80:	f083 0301 	eor.w	r3, r3, #1
 8000f84:	b2da      	uxtb	r2, r3
 8000f86:	4b0c      	ldr	r3, [pc, #48]	; (8000fb8 <task3+0x40>)
 8000f88:	701a      	strb	r2, [r3, #0]
		if(Count == 100)
 8000f8a:	4b0c      	ldr	r3, [pc, #48]	; (8000fbc <task3+0x44>)
 8000f8c:	681b      	ldr	r3, [r3, #0]
 8000f8e:	2b64      	cmp	r3, #100	; 0x64
 8000f90:	d102      	bne.n	8000f98 <task3+0x20>
			MYRTOS_ActivateTask(&Task4);
 8000f92:	480b      	ldr	r0, [pc, #44]	; (8000fc0 <task3+0x48>)
 8000f94:	f7ff fd88 	bl	8000aa8 <MYRTOS_ActivateTask>
		if(Count == 200)
 8000f98:	4b08      	ldr	r3, [pc, #32]	; (8000fbc <task3+0x44>)
 8000f9a:	681b      	ldr	r3, [r3, #0]
 8000f9c:	2bc8      	cmp	r3, #200	; 0xc8
 8000f9e:	d105      	bne.n	8000fac <task3+0x34>
		{
			Count =0;
 8000fa0:	4b06      	ldr	r3, [pc, #24]	; (8000fbc <task3+0x44>)
 8000fa2:	2200      	movs	r2, #0
 8000fa4:	601a      	str	r2, [r3, #0]
			MYRTOS_TerminateTask(&Task3);
 8000fa6:	4807      	ldr	r0, [pc, #28]	; (8000fc4 <task3+0x4c>)
 8000fa8:	f7ff fd8e 	bl	8000ac8 <MYRTOS_TerminateTask>
		}
		Count++;
 8000fac:	4b03      	ldr	r3, [pc, #12]	; (8000fbc <task3+0x44>)
 8000fae:	681b      	ldr	r3, [r3, #0]
 8000fb0:	3301      	adds	r3, #1
 8000fb2:	4a02      	ldr	r2, [pc, #8]	; (8000fbc <task3+0x44>)
 8000fb4:	6013      	str	r3, [r2, #0]
		Task3LED ^=1;
 8000fb6:	e7e1      	b.n	8000f7c <task3+0x4>
 8000fb8:	200003c8 	.word	0x200003c8
 8000fbc:	2000002c 	.word	0x2000002c
 8000fc0:	200002b0 	.word	0x200002b0
 8000fc4:	2000033c 	.word	0x2000033c

08000fc8 <task4>:
	}
}

void task4()
{
 8000fc8:	b580      	push	{r7, lr}
 8000fca:	af00      	add	r7, sp, #0
	static unsigned int Count =0;
	while(1){
		//Task 4 Code
		Task4LED ^=1;
 8000fcc:	4b0c      	ldr	r3, [pc, #48]	; (8001000 <task4+0x38>)
 8000fce:	781b      	ldrb	r3, [r3, #0]
 8000fd0:	f083 0301 	eor.w	r3, r3, #1
 8000fd4:	b2da      	uxtb	r2, r3
 8000fd6:	4b0a      	ldr	r3, [pc, #40]	; (8001000 <task4+0x38>)
 8000fd8:	701a      	strb	r2, [r3, #0]
		if(Count == 0xFFF)
 8000fda:	4b0a      	ldr	r3, [pc, #40]	; (8001004 <task4+0x3c>)
 8000fdc:	681b      	ldr	r3, [r3, #0]
 8000fde:	f640 72ff 	movw	r2, #4095	; 0xfff
 8000fe2:	4293      	cmp	r3, r2
 8000fe4:	d105      	bne.n	8000ff2 <task4+0x2a>
		{
			Count = 0;
 8000fe6:	4b07      	ldr	r3, [pc, #28]	; (8001004 <task4+0x3c>)
 8000fe8:	2200      	movs	r2, #0
 8000fea:	601a      	str	r2, [r3, #0]
			MYRTOS_TerminateTask(&Task4);
 8000fec:	4806      	ldr	r0, [pc, #24]	; (8001008 <task4+0x40>)
 8000fee:	f7ff fd6b 	bl	8000ac8 <MYRTOS_TerminateTask>

		}

		Count++;
 8000ff2:	4b04      	ldr	r3, [pc, #16]	; (8001004 <task4+0x3c>)
 8000ff4:	681b      	ldr	r3, [r3, #0]
 8000ff6:	3301      	adds	r3, #1
 8000ff8:	4a02      	ldr	r2, [pc, #8]	; (8001004 <task4+0x3c>)
 8000ffa:	6013      	str	r3, [r2, #0]
		Task4LED ^=1;
 8000ffc:	e7e6      	b.n	8000fcc <task4+0x4>
 8000ffe:	bf00      	nop
 8001000:	20000338 	.word	0x20000338
 8001004:	20000030 	.word	0x20000030
 8001008:	200002b0 	.word	0x200002b0

0800100c <main>:
	}

}
int main(void)
{
 800100c:	b580      	push	{r7, lr}
 800100e:	b082      	sub	sp, #8
 8001010:	af00      	add	r7, sp, #0
	MYRTOS_errorID error ;
	//HW_Init(Initialize CLockTree, RestController)
	HW_init();
 8001012:	f7ff f919 	bl	8000248 <HW_init>

	if(MYRTOS_init()!= NoError)
 8001016:	f7ff fa4d 	bl	80004b4 <MYRTOS_init>
 800101a:	4603      	mov	r3, r0
 800101c:	2b00      	cmp	r3, #0
 800101e:	d000      	beq.n	8001022 <main+0x16>
		while(1);
 8001020:	e7fe      	b.n	8001020 <main+0x14>



	Task1.Stack_Size=1000;
 8001022:	4b3b      	ldr	r3, [pc, #236]	; (8001110 <main+0x104>)
 8001024:	f44f 727a 	mov.w	r2, #1000	; 0x3e8
 8001028:	601a      	str	r2, [r3, #0]
	Task1.p_TaskEntry=task1;
 800102a:	4b39      	ldr	r3, [pc, #228]	; (8001110 <main+0x104>)
 800102c:	4a39      	ldr	r2, [pc, #228]	; (8001114 <main+0x108>)
 800102e:	609a      	str	r2, [r3, #8]
	Task1.priority=4;
 8001030:	4b37      	ldr	r3, [pc, #220]	; (8001110 <main+0x104>)
 8001032:	2204      	movs	r2, #4
 8001034:	711a      	strb	r2, [r3, #4]
	strcpy(Task1.TaskName ,"task_1");
 8001036:	4b38      	ldr	r3, [pc, #224]	; (8001118 <main+0x10c>)
 8001038:	4a38      	ldr	r2, [pc, #224]	; (800111c <main+0x110>)
 800103a:	e892 0003 	ldmia.w	r2, {r0, r1}
 800103e:	6018      	str	r0, [r3, #0]
 8001040:	3304      	adds	r3, #4
 8001042:	8019      	strh	r1, [r3, #0]
 8001044:	3302      	adds	r3, #2
 8001046:	0c0a      	lsrs	r2, r1, #16
 8001048:	701a      	strb	r2, [r3, #0]


	Task2.Stack_Size=1000;
 800104a:	4b35      	ldr	r3, [pc, #212]	; (8001120 <main+0x114>)
 800104c:	f44f 727a 	mov.w	r2, #1000	; 0x3e8
 8001050:	601a      	str	r2, [r3, #0]
	Task2.p_TaskEntry=task2;
 8001052:	4b33      	ldr	r3, [pc, #204]	; (8001120 <main+0x114>)
 8001054:	4a33      	ldr	r2, [pc, #204]	; (8001124 <main+0x118>)
 8001056:	609a      	str	r2, [r3, #8]
	Task2.priority=3;
 8001058:	4b31      	ldr	r3, [pc, #196]	; (8001120 <main+0x114>)
 800105a:	2203      	movs	r2, #3
 800105c:	711a      	strb	r2, [r3, #4]
	strcpy(Task2.TaskName ,"task_2");
 800105e:	4b32      	ldr	r3, [pc, #200]	; (8001128 <main+0x11c>)
 8001060:	4a32      	ldr	r2, [pc, #200]	; (800112c <main+0x120>)
 8001062:	e892 0003 	ldmia.w	r2, {r0, r1}
 8001066:	6018      	str	r0, [r3, #0]
 8001068:	3304      	adds	r3, #4
 800106a:	8019      	strh	r1, [r3, #0]
 800106c:	3302      	adds	r3, #2
 800106e:	0c0a      	lsrs	r2, r1, #16
 8001070:	701a      	strb	r2, [r3, #0]



	Task3.Stack_Size=1000;
 8001072:	4b2f      	ldr	r3, [pc, #188]	; (8001130 <main+0x124>)
 8001074:	f44f 727a 	mov.w	r2, #1000	; 0x3e8
 8001078:	601a      	str	r2, [r3, #0]
	Task3.p_TaskEntry=task3;
 800107a:	4b2d      	ldr	r3, [pc, #180]	; (8001130 <main+0x124>)
 800107c:	4a2d      	ldr	r2, [pc, #180]	; (8001134 <main+0x128>)
 800107e:	609a      	str	r2, [r3, #8]
	Task3.priority=2;
 8001080:	4b2b      	ldr	r3, [pc, #172]	; (8001130 <main+0x124>)
 8001082:	2202      	movs	r2, #2
 8001084:	711a      	strb	r2, [r3, #4]
	strcpy(Task3.TaskName ,"task_3");
 8001086:	4b2c      	ldr	r3, [pc, #176]	; (8001138 <main+0x12c>)
 8001088:	4a2c      	ldr	r2, [pc, #176]	; (800113c <main+0x130>)
 800108a:	e892 0003 	ldmia.w	r2, {r0, r1}
 800108e:	6018      	str	r0, [r3, #0]
 8001090:	3304      	adds	r3, #4
 8001092:	8019      	strh	r1, [r3, #0]
 8001094:	3302      	adds	r3, #2
 8001096:	0c0a      	lsrs	r2, r1, #16
 8001098:	701a      	strb	r2, [r3, #0]



	Task4.Stack_Size=1000;
 800109a:	4b29      	ldr	r3, [pc, #164]	; (8001140 <main+0x134>)
 800109c:	f44f 727a 	mov.w	r2, #1000	; 0x3e8
 80010a0:	601a      	str	r2, [r3, #0]
	Task4.p_TaskEntry=task4;
 80010a2:	4b27      	ldr	r3, [pc, #156]	; (8001140 <main+0x134>)
 80010a4:	4a27      	ldr	r2, [pc, #156]	; (8001144 <main+0x138>)
 80010a6:	609a      	str	r2, [r3, #8]
	Task4.priority=1;
 80010a8:	4b25      	ldr	r3, [pc, #148]	; (8001140 <main+0x134>)
 80010aa:	2201      	movs	r2, #1
 80010ac:	711a      	strb	r2, [r3, #4]
	strcpy(Task4.TaskName ,"task_4");
 80010ae:	4b26      	ldr	r3, [pc, #152]	; (8001148 <main+0x13c>)
 80010b0:	4a26      	ldr	r2, [pc, #152]	; (800114c <main+0x140>)
 80010b2:	e892 0003 	ldmia.w	r2, {r0, r1}
 80010b6:	6018      	str	r0, [r3, #0]
 80010b8:	3304      	adds	r3, #4
 80010ba:	8019      	strh	r1, [r3, #0]
 80010bc:	3302      	adds	r3, #2
 80010be:	0c0a      	lsrs	r2, r1, #16
 80010c0:	701a      	strb	r2, [r3, #0]

	error+=MYRTOS_CreateTask(&Task1);
 80010c2:	4813      	ldr	r0, [pc, #76]	; (8001110 <main+0x104>)
 80010c4:	f7ff fa7a 	bl	80005bc <MYRTOS_CreateTask>
 80010c8:	4603      	mov	r3, r0
 80010ca:	461a      	mov	r2, r3
 80010cc:	79fb      	ldrb	r3, [r7, #7]
 80010ce:	4413      	add	r3, r2
 80010d0:	71fb      	strb	r3, [r7, #7]
	error+=MYRTOS_CreateTask(&Task2);
 80010d2:	4813      	ldr	r0, [pc, #76]	; (8001120 <main+0x114>)
 80010d4:	f7ff fa72 	bl	80005bc <MYRTOS_CreateTask>
 80010d8:	4603      	mov	r3, r0
 80010da:	461a      	mov	r2, r3
 80010dc:	79fb      	ldrb	r3, [r7, #7]
 80010de:	4413      	add	r3, r2
 80010e0:	71fb      	strb	r3, [r7, #7]
	error+=MYRTOS_CreateTask(&Task3);
 80010e2:	4813      	ldr	r0, [pc, #76]	; (8001130 <main+0x124>)
 80010e4:	f7ff fa6a 	bl	80005bc <MYRTOS_CreateTask>
 80010e8:	4603      	mov	r3, r0
 80010ea:	461a      	mov	r2, r3
 80010ec:	79fb      	ldrb	r3, [r7, #7]
 80010ee:	4413      	add	r3, r2
 80010f0:	71fb      	strb	r3, [r7, #7]
	error+=MYRTOS_CreateTask(&Task4);
 80010f2:	4813      	ldr	r0, [pc, #76]	; (8001140 <main+0x134>)
 80010f4:	f7ff fa62 	bl	80005bc <MYRTOS_CreateTask>
 80010f8:	4603      	mov	r3, r0
 80010fa:	461a      	mov	r2, r3
 80010fc:	79fb      	ldrb	r3, [r7, #7]
 80010fe:	4413      	add	r3, r2
 8001100:	71fb      	strb	r3, [r7, #7]


	MYRTOS_ActivateTask(&Task1);
 8001102:	4803      	ldr	r0, [pc, #12]	; (8001110 <main+0x104>)
 8001104:	f7ff fcd0 	bl	8000aa8 <MYRTOS_ActivateTask>




	MYRTOS_STARTOS();
 8001108:	f7ff fcee 	bl	8000ae8 <MYRTOS_STARTOS>

	while (1)
 800110c:	e7fe      	b.n	800110c <main+0x100>
 800110e:	bf00      	nop
 8001110:	200002f4 	.word	0x200002f4
 8001114:	08000ee1 	.word	0x08000ee1
 8001118:	20000310 	.word	0x20000310
 800111c:	08001210 	.word	0x08001210
 8001120:	20000384 	.word	0x20000384
 8001124:	08000f29 	.word	0x08000f29
 8001128:	200003a0 	.word	0x200003a0
 800112c:	08001218 	.word	0x08001218
 8001130:	2000033c 	.word	0x2000033c
 8001134:	08000f79 	.word	0x08000f79
 8001138:	20000358 	.word	0x20000358
 800113c:	08001220 	.word	0x08001220
 8001140:	200002b0 	.word	0x200002b0
 8001144:	08000fc9 	.word	0x08000fc9
 8001148:	200002cc 	.word	0x200002cc
 800114c:	08001228 	.word	0x08001228

08001150 <Reset_Handler>:

  .section .text.Reset_Handler
  .weak Reset_Handler
  .type Reset_Handler, %function
Reset_Handler:
  ldr   r0, =_estack
 8001150:	480d      	ldr	r0, [pc, #52]	; (8001188 <LoopForever+0x2>)
  mov   sp, r0          /* set stack pointer */
 8001152:	4685      	mov	sp, r0
/* Call the clock system intitialization function.*/
  bl  SystemInit
 8001154:	f3af 8000 	nop.w

/* Copy the data segment initializers from flash to SRAM */
  ldr r0, =_sdata
 8001158:	480c      	ldr	r0, [pc, #48]	; (800118c <LoopForever+0x6>)
  ldr r1, =_edata
 800115a:	490d      	ldr	r1, [pc, #52]	; (8001190 <LoopForever+0xa>)
  ldr r2, =_sidata
 800115c:	4a0d      	ldr	r2, [pc, #52]	; (8001194 <LoopForever+0xe>)
  movs r3, #0
 800115e:	2300      	movs	r3, #0
  b LoopCopyDataInit
 8001160:	e002      	b.n	8001168 <LoopCopyDataInit>

08001162 <CopyDataInit>:

CopyDataInit:
  ldr r4, [r2, r3]
 8001162:	58d4      	ldr	r4, [r2, r3]
  str r4, [r0, r3]
 8001164:	50c4      	str	r4, [r0, r3]
  adds r3, r3, #4
 8001166:	3304      	adds	r3, #4

08001168 <LoopCopyDataInit>:

LoopCopyDataInit:
  adds r4, r0, r3
 8001168:	18c4      	adds	r4, r0, r3
  cmp r4, r1
 800116a:	428c      	cmp	r4, r1
  bcc CopyDataInit
 800116c:	d3f9      	bcc.n	8001162 <CopyDataInit>

/* Zero fill the bss segment. */
  ldr r2, =_sbss
 800116e:	4a0a      	ldr	r2, [pc, #40]	; (8001198 <LoopForever+0x12>)
  ldr r4, =_ebss
 8001170:	4c0a      	ldr	r4, [pc, #40]	; (800119c <LoopForever+0x16>)
  movs r3, #0
 8001172:	2300      	movs	r3, #0
  b LoopFillZerobss
 8001174:	e001      	b.n	800117a <LoopFillZerobss>

08001176 <FillZerobss>:

FillZerobss:
  str  r3, [r2]
 8001176:	6013      	str	r3, [r2, #0]
  adds r2, r2, #4
 8001178:	3204      	adds	r2, #4

0800117a <LoopFillZerobss>:

LoopFillZerobss:
  cmp r2, r4
 800117a:	42a2      	cmp	r2, r4
  bcc FillZerobss
 800117c:	d3fb      	bcc.n	8001176 <FillZerobss>

/* Call static constructors */
  bl __libc_init_array
 800117e:	f000 f811 	bl	80011a4 <__libc_init_array>
/* Call the application's entry point.*/
  bl main
 8001182:	f7ff ff43 	bl	800100c <main>

08001186 <LoopForever>:

LoopForever:
    b LoopForever
 8001186:	e7fe      	b.n	8001186 <LoopForever>
  ldr   r0, =_estack
 8001188:	20002800 	.word	0x20002800
  ldr r0, =_sdata
 800118c:	20000000 	.word	0x20000000
  ldr r1, =_edata
 8001190:	20000000 	.word	0x20000000
  ldr r2, =_sidata
 8001194:	08001238 	.word	0x08001238
  ldr r2, =_sbss
 8001198:	20000000 	.word	0x20000000
  ldr r4, =_ebss
 800119c:	200003cc 	.word	0x200003cc

080011a0 <ADC1_2_IRQHandler>:
 * @retval : None
*/
  .section .text.Default_Handler,"ax",%progbits
Default_Handler:
Infinite_Loop:
  b Infinite_Loop
 80011a0:	e7fe      	b.n	80011a0 <ADC1_2_IRQHandler>
	...

080011a4 <__libc_init_array>:
 80011a4:	b570      	push	{r4, r5, r6, lr}
 80011a6:	2500      	movs	r5, #0
 80011a8:	4e0c      	ldr	r6, [pc, #48]	; (80011dc <__libc_init_array+0x38>)
 80011aa:	4c0d      	ldr	r4, [pc, #52]	; (80011e0 <__libc_init_array+0x3c>)
 80011ac:	1ba4      	subs	r4, r4, r6
 80011ae:	10a4      	asrs	r4, r4, #2
 80011b0:	42a5      	cmp	r5, r4
 80011b2:	d109      	bne.n	80011c8 <__libc_init_array+0x24>
 80011b4:	f000 f81a 	bl	80011ec <_init>
 80011b8:	2500      	movs	r5, #0
 80011ba:	4e0a      	ldr	r6, [pc, #40]	; (80011e4 <__libc_init_array+0x40>)
 80011bc:	4c0a      	ldr	r4, [pc, #40]	; (80011e8 <__libc_init_array+0x44>)
 80011be:	1ba4      	subs	r4, r4, r6
 80011c0:	10a4      	asrs	r4, r4, #2
 80011c2:	42a5      	cmp	r5, r4
 80011c4:	d105      	bne.n	80011d2 <__libc_init_array+0x2e>
 80011c6:	bd70      	pop	{r4, r5, r6, pc}
 80011c8:	f856 3025 	ldr.w	r3, [r6, r5, lsl #2]
 80011cc:	4798      	blx	r3
 80011ce:	3501      	adds	r5, #1
 80011d0:	e7ee      	b.n	80011b0 <__libc_init_array+0xc>
 80011d2:	f856 3025 	ldr.w	r3, [r6, r5, lsl #2]
 80011d6:	4798      	blx	r3
 80011d8:	3501      	adds	r5, #1
 80011da:	e7f2      	b.n	80011c2 <__libc_init_array+0x1e>
 80011dc:	08001230 	.word	0x08001230
 80011e0:	08001230 	.word	0x08001230
 80011e4:	08001230 	.word	0x08001230
 80011e8:	08001234 	.word	0x08001234

080011ec <_init>:
 80011ec:	b5f8      	push	{r3, r4, r5, r6, r7, lr}
 80011ee:	bf00      	nop
 80011f0:	bcf8      	pop	{r3, r4, r5, r6, r7}
 80011f2:	bc08      	pop	{r3}
 80011f4:	469e      	mov	lr, r3
 80011f6:	4770      	bx	lr

080011f8 <_fini>:
 80011f8:	b5f8      	push	{r3, r4, r5, r6, r7, lr}
 80011fa:	bf00      	nop
 80011fc:	bcf8      	pop	{r3, r4, r5, r6, r7}
 80011fe:	bc08      	pop	{r3}
 8001200:	469e      	mov	lr, r3
 8001202:	4770      	bx	lr
